###############################################################################
#                                                                             #
# IAR ELF Linker V6.50.6.4896/W32 for ARM               27/Aug/2015  01:11:36 #
# Copyright 2007-2013 IAR Systems AB.                                         #
#                                                                             #
#    Output file  =  C:\tfsbuildR\SVIFF\Release2\FD-SW\cmdbuild\Rel\project_F #
#                    FP\FFP_1.out.tmp                                         #
#    Map file     =  C:\tfsbuildR\SVIFF\Release2\FD-SW\cmdbuild\Rel\project_F #
#                    FP\FFP_1.map                                             #
#    Command line =  -f C:\tfsbuildR\SVIFF\Release2\FD-SW\cmdbuild\Rel\projec #
#                    t_FFP\FFP_1.icf (C:\tfsbuildR\SVIFF\Release2\FD-SW\cmdbu #
#                    ild\Rel\project_FFP/ffbl_dom.o                           #
#                    C:\tfsbuildR\SVIFF\Release2\FD-SW\cmdbuild\Rel\project_F #
#                    FP/ffbl_bas.o C:\tfsbuildR\SVIFF\Release2\FD-SW\cmdbuild #
#                    \Rel\project_FFP/ffbl_res.o                              #
#                    C:\tfsbuildR\SVIFF\Release2\FD-SW\cmdbuild\Rel\project_F #
#                    FP/ffbl_fd.o C:\tfsbuildR\SVIFF\Release2\FD-SW\cmdbuild\ #
#                    Rel\project_FFP/ffbl_ai.o C:\tfsbuildR\SVIFF\Release2\FD #
#                    -SW\cmdbuild\Rel\project_FFP/ffbl_pai.o                  #
#                    C:\tfsbuildR\SVIFF\Release2\FD-SW\cmdbuild\Rel\project_F #
#                    FP/ffbl_mai.o C:\tfsbuildR\SVIFF\Release2\FD-SW\cmdbuild #
#                    \Rel\project_FFP/ffbl_ao.o C:\tfsbuildR\SVIFF\Release2\F #
#                    D-SW\cmdbuild\Rel\project_FFP/ffbl_mo.o                  #
#                    C:\tfsbuildR\SVIFF\Release2\FD-SW\cmdbuild\Rel\project_F #
#                    FP/ffbl_pao.o C:\tfsbuildR\SVIFF\Release2\FD-SW\cmdbuild #
#                    \Rel\project_FFP/ffbl_di.o C:\tfsbuildR\SVIFF\Release2\F #
#                    D-SW\cmdbuild\Rel\project_FFP/ffbl_do.o                  #
#                    C:\tfsbuildR\SVIFF\Release2\FD-SW\cmdbuild\Rel\project_F #
#                    FP/ffbl_ar.o C:\tfsbuildR\SVIFF\Release2\FD-SW\cmdbuild\ #
#                    Rel\project_FFP/ffbl_is.o C:\tfsbuildR\SVIFF\Release2\FD #
#                    -SW\cmdbuild\Rel\project_FFP/ffbl_os.o                   #
#                    C:\tfsbuildR\SVIFF\Release2\FD-SW\cmdbuild\Rel\project_F #
#                    FP/ffbl_pid.o C:\tfsbuildR\SVIFF\Release2\FD-SW\cmdbuild #
#                    \Rel\project_FFP/ffbl_krn.o                              #
#                    C:\tfsbuildR\SVIFF\Release2\FD-SW\cmdbuild\Rel\project_F #
#                    FP/aifb.o C:\tfsbuildR\SVIFF\Release2\FD-SW\cmdbuild\Rel #
#                    \project_FFP/aofb.o C:\tfsbuildR\SVIFF\Release2\FD-SW\cm #
#                    dbuild\Rel\project_FFP/arfb.o                            #
#                    C:\tfsbuildR\SVIFF\Release2\FD-SW\cmdbuild\Rel\project_F #
#                    FP/csfb.o C:\tfsbuildR\SVIFF\Release2\FD-SW\cmdbuild\Rel #
#                    \project_FFP/difb.o C:\tfsbuildR\SVIFF\Release2\FD-SW\cm #
#                    dbuild\Rel\project_FFP/dofb.o                            #
#                    C:\tfsbuildR\SVIFF\Release2\FD-SW\cmdbuild\Rel\project_F #
#                    FP/fbif_dsc.o C:\tfsbuildR\SVIFF\Release2\FD-SW\cmdbuild #
#                    \Rel\project_FFP/instance.o                              #
#                    C:\tfsbuildR\SVIFF\Release2\FD-SW\cmdbuild\Rel\project_F #
#                    FP/isfb.o C:\tfsbuildR\SVIFF\Release2\FD-SW\cmdbuild\Rel #
#                    \project_FFP/maifb.o C:\tfsbuildR\SVIFF\Release2\FD-SW\c #
#                    mdbuild\Rel\project_FFP/osfb.o                           #
#                    C:\tfsbuildR\SVIFF\Release2\FD-SW\cmdbuild\Rel\project_F #
#                    FP/pidfb.o C:\tfsbuildR\SVIFF\Release2\FD-SW\cmdbuild\Re #
#                    l\project_FFP/ptb.o C:\tfsbuildR\SVIFF\Release2\FD-SW\cm #
#                    dbuild\Rel\project_FFP/resb.o                            #
#                    C:\tfsbuildR\SVIFF\Release2\FD-SW\cmdbuild\Rel\project_F #
#                    FP/spec_ds.o C:\tfsbuildR\SVIFF\Release2\FD-SW\cmdbuild\ #
#                    Rel\project_FFP/appl_if.o C:\tfsbuildR\SVIFF\Release2\FD #
#                    -SW\cmdbuild\Rel\project_FFP/appl_res.o                  #
#                    C:\tfsbuildR\SVIFF\Release2\FD-SW\cmdbuild\Rel\project_F #
#                    FP/appl_dia.o C:\tfsbuildR\SVIFF\Release2\FD-SW\cmdbuild #
#                    \Rel\project_FFP/appl_nrv.o                              #
#                    C:\tfsbuildR\SVIFF\Release2\FD-SW\cmdbuild\Rel\project_F #
#                    FP/appl_dlh.o C:\tfsbuildR\SVIFF\Release2\FD-SW\cmdbuild #
#                    \Rel\project_FFP/appl_svi_swdl.o                         #
#                    C:\tfsbuildR\SVIFF\Release2\FD-SW\cmdbuild\Rel\project_F #
#                    FP/mnhart2ff.o C:\tfsbuildR\SVIFF\Release2\FD-SW\cmdbuil #
#                    d\Rel\project_FFP/mncharactff.o                          #
#                    C:\tfsbuildR\SVIFF\Release2\FD-SW\cmdbuild\Rel\project_F #
#                    FP/mnctllimff.o C:\tfsbuildR\SVIFF\Release2\FD-SW\cmdbui #
#                    ld\Rel\project_FFP/lui_ipc_variables.o                   #
#                    C:\tfsbuildR\SVIFF\Release2\FD-SW\cmdbuild\Rel\project_F #
#                    FP/histogram.o C:\tfsbuildR\SVIFF\Release2\FD-SW\cmdbuil #
#                    d\Rel\project_FFP/ctrl_param_set.o                       #
#                    C:\tfsbuildR\SVIFF\Release2\FD-SW\cmdbuild\Rel\project_F #
#                    FP/ui_language.o C:\tfsbuildR\SVIFF\Release2\FD-SW\cmdbu #
#                    ild\Rel\project_FFP/app_mode.o                           #
#                    C:\tfsbuildR\SVIFF\Release2\FD-SW\cmdbuild\Rel\project_F #
#                    FP/mndoswff.o C:\tfsbuildR\SVIFF\Release2\FD-SW\cmdbuild #
#                    \Rel\project_FFP/pressure_range.o                        #
#                    C:\tfsbuildR\SVIFF\Release2\FD-SW\cmdbuild\Rel\project_F #
#                    FP/mnptbexec.o C:\tfsbuildR\SVIFF\Release2\FD-SW\cmdbuil #
#                    d\Rel\project_FFP/appl_alert.o                           #
#                    C:\tfsbuildR\SVIFF\Release2\FD-SW\cmdbuild\Rel\project_F #
#                    FP/mnfaultsimport.o C:\tfsbuildR\SVIFF\Release2\FD-SW\cm #
#                    dbuild\Rel\project_FFP/mnptberrors.o                     #
#                    C:\tfsbuildR\SVIFF\Release2\FD-SW\cmdbuild\Rel\project_F #
#                    FP/mn_cycle_counter_alert.o                              #
#                    C:\tfsbuildR\SVIFF\Release2\FD-SW\cmdbuild\Rel\project_F #
#                    FP/mn_travel_accumulation.o                              #
#                    C:\tfsbuildR\SVIFF\Release2\FD-SW\cmdbuild\Rel\project_F #
#                    FP/mn_trends.o C:\tfsbuildR\SVIFF\Release2\FD-SW\cmdbuil #
#                    d\Rel\project_FFP/eep_blk2.o                             #
#                    C:\tfsbuildR\SVIFF\Release2\FD-SW\cmdbuild\Rel\project_F #
#                    FP/mn_clear_status.o C:\tfsbuildR\SVIFF\Release2\FD-SW\c #
#                    mdbuild\Rel\project_FFP/mn_actuator_3.o                  #
#                    C:\tfsbuildR\SVIFF\Release2\FD-SW\cmdbuild\Rel\project_F #
#                    FP/mn_near_closed_alert.o C:\tfsbuildR\SVIFF\Release2\FD #
#                    -SW\cmdbuild\Rel\project_FFP/mnfindstopsff.o             #
#                    C:\tfsbuildR\SVIFF\Release2\FD-SW\cmdbuild\Rel\project_F #
#                    FP/mn_travel_units.o C:\tfsbuildR\SVIFF\Release2\FD-SW\c #
#                    mdbuild\Rel\project_FFP/mn_working_times.o               #
#                    C:\tfsbuildR\SVIFF\Release2\FD-SW\cmdbuild\Rel\project_F #
#                    FP/mn_grant_deny.o C:\tfsbuildR\SVIFF\Release2\FD-SW\cmd #
#                    build\Rel\project_FFP/mndiagprocff.o                     #
#                    C:\tfsbuildR\SVIFF\Release2\FD-SW\cmdbuild\Rel\project_F #
#                    FP/mntbmspff.o C:\tfsbuildR\SVIFF\Release2\FD-SW\cmdbuil #
#                    d\Rel\project_FFP/mn_fstate.o                            #
#                    C:\tfsbuildR\SVIFF\Release2\FD-SW\cmdbuild\Rel\project_F #
#                    FP/mn_xd_errors.o C:\tfsbuildR\SVIFF\Release2\FD-SW\cmdb #
#                    uild\Rel\project_FFP/mn_errorbits.o                      #
#                    C:\tfsbuildR\SVIFF\Release2\FD-SW\cmdbuild\Rel\project_F #
#                    FP/mn_ui_access_control.o C:\tfsbuildR\SVIFF\Release2\FD #
#                    -SW\cmdbuild\Rel\project_FFP/mnipcff.o                   #
#                    C:\tfsbuildR\SVIFF\Release2\FD-SW\cmdbuild\Rel\project_F #
#                    FP/mn_supply_pressure_alert.o                            #
#                    C:\tfsbuildR\SVIFF\Release2\FD-SW\cmdbuild\Rel\project_F #
#                    FP/mn_pressure_extremes.o C:\tfsbuildR\SVIFF\Release2\FD #
#                    -SW\cmdbuild\Rel\project_FFP/mn_ip_drive_current_alert.o #
#                     C:\tfsbuildR\SVIFF\Release2\FD-SW\cmdbuild\Rel\project_ #
#                    FFP/mn_factory_defaults.o C:\tfsbuildR\SVIFF\Release2\FD #
#                    -SW\cmdbuild\Rel\project_FFP/appl_ptb.o                  #
#                    C:\tfsbuildR\SVIFF\Release2\FD-SW\cmdbuild\Rel\project_F #
#                    FP/ffactoryuse.o C:\tfsbuildR\SVIFF\Release2\FD-SW\cmdbu #
#                    ild\Rel\project_FFP/mn_temperature_alert.o               #
#                    C:\tfsbuildR\SVIFF\Release2\FD-SW\cmdbuild\Rel\project_F #
#                    FP/mn_remote_sensor.o C:\tfsbuildR\SVIFF\Release2\FD-SW\ #
#                    cmdbuild\Rel\project_FFP/mn_checkproc.o                  #
#                    C:\tfsbuildR\SVIFF\Release2\FD-SW\cmdbuild\Rel\project_F #
#                    FP/mn_fwdl.o C:\tfsbuildR\SVIFF\Release2\FD-SW\cmdbuild\ #
#                    Rel\project_FFP/mn_fwdl_hart.o                           #
#                    C:\tfsbuildR\SVIFF\Release2\FD-SW\cmdbuild\Rel\project_F #
#                    FP/mn_hdr_validate.o C:\tfsbuildR\SVIFF\Release2\FD-SW\c #
#                    mdbuild\Rel\project_FFP/controller_pid.o                 #
#                    C:\tfsbuildR\SVIFF\Release2\FD-SW\cmdbuild\Rel\project_F #
#                    FP/mn_block_header.o C:\tfsbuildR\SVIFF\Release2\FD-SW\c #
#                    mdbuild\Rel\project_FFP/mn_deviation_alert.o             #
#                    C:\tfsbuildR\SVIFF\Release2\FD-SW\cmdbuild\Rel\project_F #
#                    FP/mn_advanced.o C:\tfsbuildR\SVIFF\Release2\FD-SW\cmdbu #
#                    ild\Rel\project_FFP/mn_diagnostic_configuration.o        #
#                    C:\tfsbuildR\SVIFF\Release2\FD-SW\cmdbuild\Rel\project_F #
#                    FP/eep_blk3.o C:\tfsbuildR\SVIFF\Release2\FD-SW\cmdbuild #
#                    \Rel\project_FFP/mn_failed_state.o                       #
#                    C:\tfsbuildR\SVIFF\Release2\FD-SW\cmdbuild\Rel\project_F #
#                    FP/mn_flash_selftest.o C:\tfsbuildR\SVIFF\Release2\FD-SW #
#                    \cmdbuild\Rel\project_FFP/ffp_hmac.o                     #
#                    C:\tfsbuildR\SVIFF\Release2\FD-SW\cmdbuild\Rel\project_F #
#                    FP/fault2alert.o C:\tfsbuildR\SVIFF\Release2\FD-SW\cmdbu #
#                    ild\Rel\project_FFP/ffbl_cs.o                            #
#                    C:\tfsbuildR\SVIFF\Release2\FD-SW\cmdbuild\Rel\project_F #
#                    FP/hm.o C:\tfsbuildR\SVIFF\Release2\FD-SW\cmdbuild\Rel\p #
#                    roject_FFP/hm_if.o C:\tfsbuildR\SVIFF\Release2\FD-SW\cmd #
#                    build\Rel\project_FFP/hm_task.o                          #
#                    C:\tfsbuildR\SVIFF\Release2\FD-SW\cmdbuild\Rel\project_F #
#                    FP/hm_dma.o C:\tfsbuildR\SVIFF\Release2\FD-SW\cmdbuild\R #
#                    el\project_FFP/hw_init.o C:\tfsbuildR\SVIFF\Release2\FD- #
#                    SW\cmdbuild\Rel\project_FFP/hw_periph_cfg.o              #
#                    C:\tfsbuildR\SVIFF\Release2\FD-SW\cmdbuild\Rel\project_F #
#                    FP/hw_intr.o C:\tfsbuildR\SVIFF\Release2\FD-SW\cmdbuild\ #
#                    Rel\project_FFP/hw_hm.o C:\tfsbuildR\SVIFF\Release2\FD-S #
#                    W\cmdbuild\Rel\project_FFP/stubs_app.o                   #
#                    C:\tfsbuildR\SVIFF\Release2\FD-SW\cmdbuild\Rel\project_F #
#                    FP/hw_i2c.o C:\tfsbuildR\SVIFF\Release2\FD-SW\cmdbuild\R #
#                    el\project_FFP/hw_io.o C:\tfsbuildR\SVIFF\Release2\FD-SW #
#                    \cmdbuild\Rel\project_FFP/hw_os.o                        #
#                    C:\tfsbuildR\SVIFF\Release2\FD-SW\cmdbuild\Rel\project_F #
#                    FP/hw_tim.o C:\tfsbuildR\SVIFF\Release2\FD-SW\cmdbuild\R #
#                    el\project_FFP/eep_if.o C:\tfsbuildR\SVIFF\Release2\FD-S #
#                    W\cmdbuild\Rel\project_FFP/osif_mn.o                     #
#                    C:\tfsbuildR\SVIFF\Release2\FD-SW\cmdbuild\Rel\project_F #
#                    FP/osif_tsk.o C:\tfsbuildR\SVIFF\Release2\FD-SW\cmdbuild #
#                    \Rel\project_FFP/osif_tim.o                              #
#                    C:\tfsbuildR\SVIFF\Release2\FD-SW\cmdbuild\Rel\project_F #
#                    FP/osif_cfg.o C:\tfsbuildR\SVIFF\Release2\FD-SW\cmdbuild #
#                    \Rel\project_FFP/xmtx.o C:\tfsbuildR\SVIFF\Release2\FD-S #
#                    W\cmdbuild\Rel\project_FFP/misc.o                        #
#                    C:\tfsbuildR\SVIFF\Release2\FD-SW\cmdbuild\Rel\project_F #
#                    FP/stm32f10x_exti.o C:\tfsbuildR\SVIFF\Release2\FD-SW\cm #
#                    dbuild\Rel\project_FFP/stm32f10x_fsmc.o                  #
#                    C:\tfsbuildR\SVIFF\Release2\FD-SW\cmdbuild\Rel\project_F #
#                    FP/stm32f10x_gpio.o C:\tfsbuildR\SVIFF\Release2\FD-SW\cm #
#                    dbuild\Rel\project_FFP/stm32f10x_rcc.o                   #
#                    C:\tfsbuildR\SVIFF\Release2\FD-SW\cmdbuild\Rel\project_F #
#                    FP/stm32f10x_tim.o C:\tfsbuildR\SVIFF\Release2\FD-SW\cmd #
#                    build\Rel\project_FFP/stm32f10x_usart.o                  #
#                    C:\tfsbuildR\SVIFF\Release2\FD-SW\cmdbuild\Rel\project_F #
#                    FP/selftest.o C:\tfsbuildR\SVIFF\Release2\FD-SW\cmdbuild #
#                    \Rel\project_FFP/chsum.o C:\tfsbuildR\SVIFF\Release2\FD- #
#                    SW\cmdbuild\Rel\project_FFP/bufutils.o                   #
#                    C:\tfsbuildR\SVIFF\Release2\FD-SW\cmdbuild\Rel\project_F #
#                    FP/crc.o C:\tfsbuildR\SVIFF\Release2\FD-SW\cmdbuild\Rel\ #
#                    project_FFP/sha256.o C:\tfsbuildR\SVIFF\Release2\FD-SW\c #
#                    mdbuild\Rel\project_FFP/cortextrapc.o                    #
#                    C:\tfsbuildR\SVIFF\Release2\FD-SW\cmdbuild\Rel\project_F #
#                    FP/mncbdefs.o C:\tfsbuildR\SVIFF\Release2\FD-SW\cmdbuild #
#                    \Rel\project_FFP/verinfo.o C:\tfsbuildR\SVIFF\Release2\F #
#                    D-SW\cmdbuild\Rel\project_FFP/stm_flash.o                #
#                    C:\tfsbuildR\SVIFF\Release2\FD-SW\cmdbuild\Rel\project_F #
#                    FP/stm_timer.o C:\tfsbuildR\SVIFF\Release2\FD-SW\cmdbuil #
#                    d\Rel\project_FFP/stm_watchdogff.o                       #
#                    C:\tfsbuildR\SVIFF\Release2\FD-SW\cmdbuild\Rel\project_F #
#                    FP/cortextrap.o C:\tfsbuildR\SVIFF\Release2\FD-SW\cmdbui #
#                    ld\Rel\project_FFP/endofimage.o                          #
#                    C:\tfsbuildR\SVIFF\Release2\FD-SW\cmdbuild\Rel\project_F #
#                    FP/poschrtab.o C:\tfsbuildR\SVIFF\Release2\FD-SW\cmdbuil #
#                    d\Rel\project_FFP/mnassert.o) --redirect                 #
#                    fbs_call_fdev_funct=mnfbs_call_fdev_funct --redirect     #
#                    fdc_wd_reset_wd_counter=mnfdc_wd_reset_wd_counter        #
#                    --config_def ROMSTART=0x08080800 --config_def            #
#                    ROMEND=0x080F7777 --config_def RAMSTART=0x20000000       #
#                    --config_def RAMEND=0x20013FFF --map                     #
#                    C:\tfsbuildR\SVIFF\Release2\FD-SW\cmdbuild\Rel\project_F #
#                    FP\FFP_1.map --log initialization,modules,sections,venee #
#                    rs --log_file C:\tfsbuildR\SVIFF\Release2\FD-SW\cmdbuild #
#                    \Rel\project_FFP\FFP_1.log --config                      #
#                    C:\tfsbuildR\SVIFF\Release2\FD-SW\mncblink.icf --entry   #
#                    __iar_program_start _embOS_CortexM_IAR/Start/Lib/os7m_tl #
#                    __S.a target/mak/FF_SVI_REL/lib/base.a                   #
#                    target/mak/FF_SVI_REL/lib/ffbs.a -o                      #
#                    C:\tfsbuildR\SVIFF\Release2\FD-SW\cmdbuild\Rel\project_F #
#                    FP\FFP_1.out.tmp                                         #
#                                                                             #
#                                                                             #
###############################################################################

*******************************************************************************
*** RUNTIME MODEL ATTRIBUTES
***

CppFlavor       = *
__Heap_Handler  = DLMalloc
__SystemLibrary = DLib


*******************************************************************************
*** PLACEMENT SUMMARY
***

"A1":  place at 0x08080800 {
          ro section .intvec, block __kernel_functions_block__ };
"P1":  place in [from 0x08080800 to 0x080f7777] {
          first block __const_data__, block __hw_code__, block __dbg_code__,
          block __eep_code__, block __osif_code__, block __cif_code__,
          block __fbs_code__, block __fbif_code__, block __fdev_code__,
          block __uta_code__, block __ddl_code__, block __fal_code__,
          block __fmg_code__, block __general_code__, ro,
          last block __mn_checksum__ };
"P2":  place in [from 0x20000000 to 0x20013fff] {
          zi, block OSIF_MEM, rw, first block CSTACK };
"P3":  place in [from 0x60000000 to 0x6007ffff] {
          last block HEAP, section EEP_IMAGE };

  Section               Kind        Address     Size  Object
  -------               ----        -------     ----  ------
"A1":                                          0x13c
  .intvec                        0x08080800    0x13c  <Block>
    .intvec             const    0x08080800    0x13c  hw_intr.o [1]
                               - 0x0808093c    0x13c

"P1":                                        0x44afc
  __const_data__                 0x0808093c  0x12808  <Block>
    .rodata             const    0x0808093c      0x4  ffbl_res.o [1]
    .rodata             const    0x08080940    0xd98  aifb.o [1]
    .rodata             const    0x080816d8    0xb9c  aofb.o [1]
    .rodata             const    0x08082274    0xd3c  arfb.o [1]
    .rodata             const    0x08082fb0    0x944  csfb.o [1]
    .rodata             const    0x080838f4    0x9b0  difb.o [1]
    .rodata             const    0x080842a4    0xa20  dofb.o [1]
    .rodata             const    0x08084cc4    0x604  fbif_dsc.o [1]
    .rodata             const    0x080852c8    0x634  instance.o [1]
    .rodata             const    0x080858fc    0x9b8  isfb.o [1]
    .rodata             const    0x080862b4    0x7d8  maifb.o [1]
    .rodata             const    0x08086a8c    0x9f0  osfb.o [1]
    .rodata             const    0x0808747c   0x16f4  pidfb.o [1]
    .rodata             const    0x08088b70   0x30d0  ptb.o [1]
    .rodata             const    0x0808bc40   0x1754  resb.o [1]
    .rodata             const    0x0808d394   0x3058  spec_ds.o [1]
    .rodata             const    0x080903ec     0x2c  appl_if.o [1]
    .rodata             const    0x08090418      0x4  mnhart2ff.o [1]
    .rodata             const    0x0809041c      0x4  mnhart2ff.o [1]
    .rodata             const    0x08090420     0x34  appl_ptb.o [1]
    .rodata             const    0x08090454      0x4  hw_os.o [1]
    .rodata             const    0x08090458    0x140  osif_cfg.o [1]
    .rodata             const    0x08090598   0x10e0  fbs_vfd.o [5]
    .rodata             const    0x08091678     0x6c  dll_lrx.o [3]
    .rodata             const    0x080916e4     0x6c  dll_ltim.o [3]
    .rodata             const    0x08091750   0x1474  mib.o [3]
    .rodata             const    0x08092bc4    0x1aa  fault2alert.o [1]
    .rodata             const    0x08092d6e     0x1c  mncbdefs.o [1]
    .rodata             const    0x08092d8a    0x1b8  poschrtab.o [1]
    .rodata             const    0x08092f42     0x21  appl_if.o [1]
    .rodata             const    0x08092f63     0x32  appl_if.o [1]
    .rodata             const    0x08092f95     0x39  appl_if.o [1]
    .rodata             const    0x08092fce     0x28  appl_dlh.o [1]
    .rodata             const    0x08092ff6     0x88  fmg.o [3]
    .rodata             const    0x0809307e     0xc6  dll_drx.o [3]
    .rodata             const    0x08093144      0x0  zero_init3.o [8]
    .rodata             const    0x08093144      0x0  copy_init3.o [8]
  __general_code__               0x08093148  0x1980c  <Block>
    .text               ro code  0x08093148    0x860  pow.o [6]
    .text               ro code  0x080939a8     0x42  xdnorm.o [6]
    .text               ro code  0x080939ea     0x7e  xdint.o [6]
    .text               ro code  0x08093a68     0x20  DblCmpEq.o [6]
    .text               ro code  0x08093a88      0xc  errno.o [4]
    .text               ro code  0x08093a94     0x2e  DblCmpGe.o [6]
    .text               ro code  0x08093ac2     0x22  zero_init3.o [8]
    .text               ro code  0x08093ae4     0x2e  DblCmpLe.o [6]
    .text               ro code  0x08093b12     0x2e  copy_init3.o [8]
    .text               ro code  0x08093b40    0x1a2  DblMul.o [6]
    .text               ro code  0x08093ce4     0xe8  DblAdd.o [6]
    .text               ro code  0x08093dcc     0x4c  DblToI32.o [6]
    .text               ro code  0x08093e18     0x30  I32ToDbl.o [6]
    .text               ro code  0x08093e48    0x180  DblSub.o [6]
    .text               ro code  0x08093fc8    0x246  DblDiv.o [6]
    .text               ro code  0x08094210     0xa8  xlog.o [6]
    .text               ro code  0x080942b8    0x2a4  xexp.o [6]
    .text               ro code  0x0809455c     0x18  xtls.o [7]
    .text               ro code  0x08094574     0x32  xdtest.o [6]
    .text               ro code  0x080945a8    0x10c  xdscale.o [6]
    .text               ro code  0x080946b4    0x524  ffbl_bas.o [1]
    .text               ro code  0x08094bd8     0xe6  FltSub.o [6]
    .text               ro code  0x08094cc0     0x4e  FltToDbl.o [6]
    .text               ro code  0x08094d10     0x90  DblToFlt.o [6]
    .text               ro code  0x08094da0     0x24  FltCmpLe.o [6]
    .text               ro code  0x08094dc4     0x1c  FltCmpEq.o [6]
    .text               ro code  0x08094de0     0xfc  FltDiv.o [6]
    .text               ro code  0x08094edc     0xd8  FltMul.o [6]
    .text               ro code  0x08094fb4     0x84  FltAdd.o [6]
    .text               ro code  0x08095038    0x7fe  osif_tsk.o [1]
    .text               ro code  0x08095838    0x1ac  mnassert.o [1]
    .text               ro code  0x080959e4     0xbc  osif_mn.o [1]
    .text               ro code  0x08095aa0     0x18  OSMAIL.o [7]
    .text               ro code  0x08095ab8    0x284  crc.o [1]
    .text               ro code  0x08095d3c     0x7c  OS_CreateTaskEx.o [7]
    .text               ro code  0x08095db8     0x76  ABImemcpy.o [8]
    .text               ro code  0x08095e30     0x48  OSEVENW.o [7]
    .text               ro code  0x08095e78     0x48  OSEVENS.o [7]
    .text               ro code  0x08095ec0    0x3ac  OSKERN.o [7]
    .text               ro code  0x0809626c     0xcc  selftest.o [1]
    .text               ro code  0x08096338     0x44  OSSETP.o [7]
    .text               ro code  0x0809637c     0x28  OSISTASK.o [7]
    .text               ro code  0x080963a4     0xec  rtos.o [7]
    .text               ro code  0x08096490   0x1408  dlmalloc.o [4]
    .text               ro code  0x08097898     0x10  OSEVENGE.o [7]
    .text               ro code  0x080978a8     0x4c  OSEVENWS.o [7]
    .text               ro code  0x080978f4     0xeb  mn_flash_selftest.o [1]
    .text               ro code  0x080979e0    0x3bf  hw_i2c.o [1]
    .text               ro code  0x08097da0     0x70  stubs_app.o [1]
    .text               ro code  0x08097e10     0x90  misc.o [1]
    .text               ro code  0x08097ea0    0x1d4  hw_init.o [1]
    .text               ro code  0x08098074     0x7c  hw_os.o [1]
    .text               ro code  0x080980f0    0xd40  eep_if.o [1]
    .text               ro code  0x08098e30    0x3b9  appl_if.o [1]
    .text               ro code  0x080991ec      0x6  ABImemclr4.o [8]
    .text               ro code  0x080991f4     0x66  ABImemset.o [8]
    .text               ro code  0x0809925c      0xc  OS_StackInfo.o [7]
    .text               ro code  0x08099268     0x1c  OS_InitMode.o [7]
    .text               ro code  0x08099284     0x16  chsum.o [1]
    .text               ro code  0x0809929a      0x6  abort.o [4]
    .text               ro code  0x080992a0     0x2c  xgetmemchunk.o [4]
    .text               ro code  0x080992cc    0x13c  hw_hm.o [1]
    .text               ro code  0x08099408    0x418  hm_task.o [1]
    .text               ro code  0x08099820     0xec  OSRSEM.o [7]
    .text               ro code  0x0809990c     0x2c  OSRSEMRQ.o [7]
    .text               ro code  0x08099938    0x38c  osif_tim.o [1]
    .text               ro code  0x08099cc4    0x118  stm32f10x_rcc.o [1]
    .text               ro code  0x08099ddc    0x5b8  hw_periph_cfg.o [1]
    .text               ro code  0x0809a394     0xe7  stm_watchdogff.o [1]
    .text               ro code  0x0809a47c     0x44  OS_TICK_Handle.o [7]
    .text               ro code  0x0809a4c0    0x210  hw_io.o [1]
    .text               ro code  0x0809a6d0     0x62  memcmp.o [8]
    .text               ro code  0x0809a734     0x3a  ABImemset48.o [8]
    .text               ro code  0x0809a770    0x328  appl_dlh.o [1]
    .text               ro code  0x0809aa98    0x138  eep_blk2.o [1]
    .text               ro code  0x0809abd0    0x184  eep_blk3.o [1]
    .text               ro code  0x0809ad54     0x88  hm_if.o [1]
    .text               ro code  0x0809addc    0x208  appl_dia.o [1]
    .text               ro code  0x0809afe4    0x5e7  ffbl_res.o [1]
    .text               ro code  0x0809b5cc     0x36  strlen.o [8]
    .text               ro code  0x0809b604      0xc  XXexit.o [8]
    .text               ro code  0x0809b610     0xe0  stm32f10x_usart.o [1]
    .text               ro code  0x0809b6f0    0x6a4  hm.o [1]
    .text               ro code  0x0809bd94     0x2c  OS_Wait.o [7]
    .text               ro code  0x0809bdc0     0x3c  OS_DeactivateP.o [7]
    .text               ro code  0x0809bdfc     0xb4  hw_tim.o [1]
    .text               ro code  0x0809beb0     0x28  OSTimeS.o [7]
    .text               ro code  0x0809bed8    0x178  OSTIME.o [7]
    .text               ro code  0x0809c050    0x1b4  stm32f10x_gpio.o [1]
    .text               ro code  0x0809c204     0x78  stm32f10x_exti.o [1]
    .text               ro code  0x0809c27c     0x20  stm32f10x_fsmc.o [1]
    .text               ro code  0x0809c29c    0x138  stm32f10x_tim.o [1]
    .text               ro code  0x0809c3d4     0x80  stm_timer.o [1]
    .text               ro code  0x0809c454     0x24  appl_svi_swdl.o [1]
    .text               ro code  0x0809c478      0xc  appl_dlh.o [1]
    .text               ro code  0x0809c484    0x520  mn_fwdl.o [1]
    .text               ro code  0x0809c9a4      0x6  ABImemclr.o [8]
    .text               ro code  0x0809c9ac    0x3c0  ffbl_fd.o [1]
    .text               ro code  0x0809cd6c    0xabc  appl_ptb.o [1]
    .text               ro code  0x0809d828    0x154  mnptberrors.o [1]
    .text               ro code  0x0809d97c    0x470  mnipcff.o [1]
    .text               ro code  0x0809ddec     0x88  hm_dma.o [1]
    .text               ro code  0x0809de74    0x27c  stm_flash.o [1]
    .text               ro code  0x0809e0f0    0x100  mn_fwdl_hart.o [1]
    .text               ro code  0x0809e1f0     0x80  ffp_hmac.o [1]
    .text               ro code  0x0809e270    0x390  sha256.o [1]
    .text               ro code  0x0809e600    0x566  mntbmspff.o [1]
    .text               ro code  0x0809eb68    0xb29  appl_alert.o [1]
    .text               ro code  0x0809f694    0x134  mn_working_times.o [1]
    .text               ro code  0x0809f7c8    0x318  mndoswff.o [1]
    .text               ro code  0x0809fae0     0x71  mn_errorbits.o [1]
    .text               ro code  0x0809fb54    0x3d0  mn_fstate.o [1]
    .text               ro code  0x0809ff24    0x44c  histogram.o [1]
    .text               ro code  0x080a0370    0x3a0  mn_trends.o [1]
    .text               ro code  0x080a0710    0x3f8  mn_advanced.o [1]
    .text               ro code  0x080a0b08    0x3c4  mncharactff.o [1]
    .text               ro code  0x080a0ecc    0x2e6  mnfindstopsff.o [1]
    .text               ro code  0x080a11b2    0x38a  mndiagprocff.o [1]
    .text               ro code  0x080a153c    0x39e  mnctllimff.o [1]
    .text               ro code  0x080a18dc    0x364  ctrl_param_set.o [1]
    .text               ro code  0x080a1c40     0x38  ui_language.o [1]
    .text               ro code  0x080a1c78     0x30  app_mode.o [1]
    .text               ro code  0x080a1ca8    0x270  pressure_range.o [1]
    .text               ro code  0x080a1f18    0x148  mn_actuator_3.o [1]
    .text               ro code  0x080a2060     0xbe  mn_ui_access_control.o [1]
    .text               ro code  0x080a2120    0x258  ffactoryuse.o [1]
    .text               ro code  0x080a2378     0xfc  mn_xd_errors.o [1]
    .text               ro code  0x080a2474     0xc4  mn_remote_sensor.o [1]
    .text               ro code  0x080a2538     0x24  mn_checkproc.o [1]
    .text               ro code  0x080a255c     0x3e  mn_block_header.o [1]
    .text               ro code  0x080a259c     0xa0  mn_cycle_counter_alert.o [1]
    .text               ro code  0x080a263c     0xa0  mn_travel_accumulation.o [1]
    .text               ro code  0x080a26dc     0x24  mn_clear_status.o [1]
    .text               ro code  0x080a2700    0x258  mn_travel_units.o [1]
    .text               ro code  0x080a2958    0x794  lui_ipc_variables.o [1]
    .text               ro code  0x080a30ec    0x10c  mn_near_closed_alert.o [1]
    .text               ro code  0x080a31f8    0x2d4  mn_supply_pressure_alert.o [1]
    .text               ro code  0x080a34cc     0x94  mn_ip_drive_current_alert.o [1]
    .text               ro code  0x080a3560     0x70  mn_temperature_alert.o [1]
    .text               ro code  0x080a35d0    0x178  mn_deviation_alert.o [1]
    .text               ro code  0x080a3748     0xe8  mn_diagnostic_configuration.o [1]
    .text               ro code  0x080a3830     0x2e  mn_failed_state.o [1]
    .text               ro code  0x080a3860     0xb0  mnfaultsimport.o [1]
    .text               ro code  0x080a3910     0x91  bufutils.o [1]
    .text               ro code  0x080a39a4     0x32  I32ToFlt.o [6]
    .text               ro code  0x080a39d6     0x62  mnhart2ff.o [1]
    .text               ro code  0x080a3a38     0x1e  U64Shr.o [8]
    .text               ro code  0x080a3a58     0x24  FltCmpGe.o [6]
    .text               ro code  0x080a3a7c     0x40  lroundf.o [6]
    .text               ro code  0x080a3abc     0x24  FltToU32.o [6]
    .text               ro code  0x080a3ae0     0x44  FltToS32.o [6]
    .text               ro code  0x080a3b24     0x34  floorf.o [6]
    .text               ro code  0x080a3b58     0x2a  xfdtest.o [6]
    .text               ro code  0x080a3b84     0x28  roundf.o [6]
    .text               ro code  0x080a3bac    0xbe4  ffbl_ai.o [1]
    .text               ro code  0x080a4790     0xf0  sqrt.o [6]
    .text               ro code  0x080a4880    0x136  ffbl_pai.o [1]
    .text               ro code  0x080a49b8      0xc  iarEdom.o [8]
    .text               ro code  0x080a49c4    0xe0c  ffbl_ao.o [1]
    .text               ro code  0x080a57d0     0x44  ffbl_pao.o [1]
    .text               ro code  0x080a5814    0x598  ffbl_mo.o [1]
    .text               ro code  0x080a5dac    0x6da  ffbl_di.o [1]
    .text               ro code  0x080a6488    0xbaa  ffbl_do.o [1]
    .text               ro code  0x080a7034    0xcbc  ffbl_ar.o [1]
    .text               ro code  0x080a7cf0    0x708  ffbl_is.o [1]
    .text               ro code  0x080a83f8    0xc2c  ffbl_os.o [1]
    .text               ro code  0x080a9024   0x1aec  ffbl_pid.o [1]
    .text               ro code  0x080aab10     0x14  ffbl_krn.o [1]
    .text               ro code  0x080aab24    0x902  controller_pid.o [1]
    .text               ro code  0x080ab428     0x20  spec_ds.o [1]
    .text               ro code  0x080ab448    0x104  appl_res.o [1]
    .text               ro code  0x080ab54c    0x29a  mn_factory_defaults.o [1]
    .text               ro code  0x080ab7e6     0x38  mn_grant_deny.o [1]
    .text               ro code  0x080ab820    0x3ac  mnptbexec.o [1]
    .text               ro code  0x080abbcc    0x776  ffbl_cs.o [1]
    .text               ro code  0x080ac344     0x74  hw_intr.o [1]
    .text               ro code  0x080ac3b8     0x28  cortextrapc.o [1]
    .text               ro code  0x080ac3e0     0x2c  cortextrap.o [1]
    .text               ro code  0x080ac40c     0x42  strcmp.o [8]
    .text               ro code  0x080ac450     0x20  srand.o [4]
    .text               ro code  0x080ac470     0xe0  rand.o [4]
    .text               ro code  0x080ac550     0x16  cmain.o [8]
    .text               ro code  0x080ac568     0x28  data_init.o [8]
    .text               ro code  0x080ac590      0x4  exit.o [4]
    .text               ro code  0x080ac594      0xa  cexit.o [8]
    .text               ro code  0x080ac59e    0x388  ffbl_mai.o [1]
    .text               ro code  0x080ac926     0x1a  appl_nrv.o [1]
    .text               ro code  0x080ac940      0xc  cstartup_M.o [8]
    .text               ro code  0x080ac94c      0x8  labs.o [4]
  CODE                  ro code  0x080ac954     0x5c  hw_init.o [1]
  CODE                  ro code  0x080ac9b0      0x2  hw_intr.o [1]
  tmp_code              ro code  0x080ac9b4    0x81c  tmp_hi.o [3]
  tmp_code              ro code  0x080ad1d0    0x22c  tmp_lo.o [3]
  __cif_code__                   0x080ad3fc    0x8b4  <Block>
    cif_code            ro code  0x080ad3fc    0x738  fdc.o [3]
    cif_code            ro code  0x080adb34    0x178  fdc_bgd.o [3]
    cif_code            ro code  0x080adcac      0x4  fdc_wd.o [3]
  __fbs_code__                   0x080adcb0   0x8990  <Block>
    fbs_code            ro code  0x080adcb0    0xe56  fbs_alt.o [5]
    fbs_code            ro code  0x080aeb08    0x175  fbs_blk.o [5]
    fbs_code            ro code  0x080aec80    0xd80  fbs_vfd.o [5]
    fbs_code            ro code  0x080afa00    0x918  fbs_acc.o [5]
    fbs_code            ro code  0x080b0318    0x348  fbs_if.o [5]
    fbs_code            ro code  0x080b0660   0x1da0  fbs_run.o [5]
    fbs_code            ro code  0x080b2400    0x990  fbs_init.o [5]
    fbs_code            ro code  0x080b2d90    0x86c  fbs_od.o [5]
    fbs_code            ro code  0x080b35fc    0x258  fbs_fbif.o [5]
    fbs_code            ro code  0x080b3854    0xf6c  fbs_nv.o [5]
    fbs_code            ro code  0x080b47c0    0x13c  fbs_scd.o [5]
    fbs_code            ro code  0x080b48fc   0x1228  fbs_mvc.o [5]
    fbs_code            ro code  0x080b5b24    0x37c  fbs_trd.o [5]
    fbs_code            ro code  0x080b5ea0    0x7a0  fbs_rw.o [5]
  __ddl_code__                   0x080b6640   0x6afc  <Block>
    dll_code            ro code  0x080b6640    0xca4  dll_spc4.o [3]
    dll_code            ro code  0x080b72e4     0x14  dll_list.o [3]
    dll_code            ro code  0x080b72f8    0xb30  dll_lrx.o [3]
    dll_code            ro code  0x080b7e28    0x200  dll_bas.o [3]
    dll_code            ro code  0x080b8028    0xf02  dll_acc.o [3]
    dll_code            ro code  0x080b8f2c    0xf14  dll_drx.o [3]
    dll_code            ro code  0x080b9e40   0x13ac  dll_las.o [3]
    dll_code            ro code  0x080bb1ec    0x698  dll_ltx.o [3]
    dll_code            ro code  0x080bb884    0x2ac  dll_msg.o [3]
    dll_code            ro code  0x080bbb30    0x220  dll_cfg.o [3]
    dll_code            ro code  0x080bbd50   0x108c  dll_list.o [3]
    dll_code            ro code  0x080bcddc    0x1a4  dll_addr.o [3]
    dll_code            ro code  0x080bcf80    0x1bc  dll_ltim.o [3]
  __fal_code__                   0x080bd13c   0x365c  <Block>
    fal_code            ro code  0x080bd13c    0x410  faltsk.o [3]
    fal_code            ro code  0x080bd54c    0xcc0  falvcr.o [3]
    fal_code            ro code  0x080be20c    0x498  faltim.o [3]
    fal_code            ro code  0x080be6a4    0x15e  falsub.o [3]
    fal_code            ro code  0x080be804    0x418  falabt.o [3]
    fal_code            ro code  0x080bec1c     0xd0  falass.o [3]
    fal_code            ro code  0x080becec    0x7ee  faldll.o [3]
    fal_code            ro code  0x080bf4da    0x58a  falfms.o [3]
    fal_code            ro code  0x080bfa64    0x538  fmscod.o [3]
    fal_code            ro code  0x080bff9c    0x248  fmsif.o [3]
    fal_code            ro code  0x080c01e4    0x3d6  falsrv.o [3]
    fal_code            ro code  0x080c05ba      0x4  falaux.o [3]
    fal_code            ro code  0x080c05be     0x1e  falopn.o [3]
    fal_code            ro code  0x080c05dc     0xe4  falpub.o [3]
    fal_code            ro code  0x080c06c0     0xd8  falsnd.o [3]
  __fmg_code__                   0x080c0798   0x4996  <Block>
    fmg_code            ro code  0x080c0798    0xa33  smdls.o [3]
    fmg_code            ro code  0x080c11cc   0x13dc  sm.o [3]
    fmg_code            ro code  0x080c25a8    0x544  smtim.o [3]
    fmg_code            ro code  0x080c2aec    0x388  nmvcr.o [3]
    fmg_code            ro code  0x080c2e74    0x658  nmod.o [3]
    fmg_code            ro code  0x080c34cc    0x268  nmif.o [3]
    fmg_code            ro code  0x080c3734    0x90c  nmdom.o [3]
    fmg_code            ro code  0x080c4040    0xf8c  nmcfg.o [3]
    fmg_code            ro code  0x080c4fcc    0x162  fmg.o [3]
  Initializer bytes     ro data  0x080c5130    0x238  <for P2 mid-1>
  Initializer bytes     ro data  0x080c5368     0x90  <for __DLIB_PERTHREAD-1>
  .iar.init_table       const    0x080c53f8     0x38  - Linker created -
  __mn_checksum__                0x080c5430      0x6  <Block>
    checksum            ro code  0x080c5430      0x6  endofimage.o [1]
                               - 0x080c5436  0x44afa

"P2":                                        0x12ac5
  CSTACK                         0x20000000   0x1000  <Block>
    CSTACK              uninit   0x20000000   0x1000  <Block tail>
  P2 mid-1                       0x20001000    0x238  <Init block>
    .data               inited   0x20001000     0x44  ffbl_fd.o [1]
    .data               inited   0x20001044     0x14  ffbl_fd.o [1]
    .data               inited   0x20001058      0x8  appl_if.o [1]
    .data               inited   0x20001060     0x3c  histogram.o [1]
    .data               inited   0x2000109c      0x4  mndoswff.o [1]
    .data               inited   0x200010a0      0x1  mnptbexec.o [1]
    .data               inited   0x200010a1      0x1  mnptbexec.o [1]
    .data               inited   0x200010a2      0x1  mnptbexec.o [1]
    .data               inited   0x200010a4      0x2  appl_alert.o [1]
    .data               inited   0x200010a8      0xc  mnptberrors.o [1]
    .data               inited   0x200010b4      0x4  mn_trends.o [1]
    .data               inited   0x200010b8      0x8  mn_trends.o [1]
    .data               inited   0x200010c0     0x68  mn_trends.o [1]
    .data               inited   0x20001128     0x11  mn_fstate.o [1]
    .data               inited   0x20001139      0x2  mnipcff.o [1]
    .data               inited   0x2000113c      0xc  appl_ptb.o [1]
    .data               inited   0x20001148      0x1  appl_ptb.o [1]
    .data               inited   0x2000114c     0x50  mn_fwdl.o [1]
    .data               inited   0x2000119c      0x4  mn_flash_selftest.o [1]
    .data               inited   0x200011a0      0x4  hm_task.o [1]
    .data               inited   0x200011a4     0x38  eep_if.o [1]
    .data               inited   0x200011dc     0x14  eep_if.o [1]
    .data               inited   0x200011f0      0x8  osif_tsk.o [1]
    .data               inited   0x200011f8     0x14  stm32f10x_rcc.o [1]
    .data               inited   0x2000120c     0x2c  OSGLOBAL.o [7]
  __DLIB_PERTHREAD               0x20001238     0x90  <Block>
    __DLIB_PERTHREAD-1           0x20001238     0x90  <Init block>
      __DLIB_PERTHREAD  inited   0x20001238     0x8c  rand.o [4]
      __DLIB_PERTHREAD  inited   0x200012c4      0x4  errno.o [4]
  .bss                  zero     0x200012c8     0x70  sha256.o [1]
  .bss                  zero     0x20001338     0x4c  mncharactff.o [1]
  .bss                  zero     0x20001384     0x4c  lui_ipc_variables.o [1]
  .bss                  zero     0x200013d0     0x12  lui_ipc_variables.o [1]
  .bss                  zero     0x200013e2      0x2  ffbl_res.o [1]
  .bss                  zero     0x200013e4     0x90  histogram.o [1]
  .bss                  zero     0x20001474      0x4  appl_alert.o [1]
  .bss                  zero     0x20001478      0x8  appl_alert.o [1]
  .bss                  zero     0x20001480     0x10  appl_alert.o [1]
  .bss                  zero     0x20001490     0x10  appl_alert.o [1]
  .bss                  zero     0x200014a0     0x10  appl_alert.o [1]
  .bss                  zero     0x200014b0      0x8  appl_alert.o [1]
  .bss                  zero     0x200014b8      0x8  appl_alert.o [1]
  .bss                  zero     0x200014c0    0x408  appl_alert.o [1]
  .bss                  zero     0x200018c8      0x4  mn_working_times.o [1]
  .bss                  zero     0x200018cc      0x4  mn_errorbits.o [1]
  .bss                  zero     0x200018d0      0x8  mnipcff.o [1]
  .bss                  zero     0x200018d8      0xc  appl_ptb.o [1]
  .bss                  zero     0x200018e4      0x8  appl_ptb.o [1]
  .bss                  zero     0x200018ec     0x22  mn_fwdl.o [1]
  .bss                  zero     0x2000190e      0x2  eep_if.o [1]
  .bss                  zero     0x20001910     0x34  mn_fwdl.o [1]
  .bss                  zero     0x20001944     0x3c  mn_fwdl_hart.o [1]
  .bss                  zero     0x20001980     0x3c  mn_fwdl_hart.o [1]
  .bss                  zero     0x200019bc     0x38  mn_advanced.o [1]
  .bss                  zero     0x200019f4     0x20  hm.o [1]
  .bss                  zero     0x20001a14     0x14  hm.o [1]
  .bss                  zero     0x20001a28     0x14  hw_init.o [1]
  .bss                  zero     0x20001a3c      0xc  hw_init.o [1]
  .bss                  zero     0x20001a48      0x4  hw_intr.o [1]
  .bss                  zero     0x20001a4c      0x4  hw_i2c.o [1]
  .bss                  zero     0x20001a50     0x38  hw_i2c.o [1]
  .bss                  zero     0x20001a88     0x20  eep_if.o [1]
  .bss                  zero     0x20001aa8    0x5b4  osif_tsk.o [1]
  .bss                  zero     0x2000205c     0x10  osif_tsk.o [1]
  .bss                  zero     0x2000206c     0x78  osif_cfg.o [1]
  .bss                  zero     0x200020e4     0x30  osif_cfg.o [1]
  .bss                  zero     0x20002114     0x30  osif_cfg.o [1]
  .bss                  zero     0x20002144    0x168  osif_cfg.o [1]
  .bss                  zero     0x200022ac     0x78  osif_cfg.o [1]
  .bss                  zero     0x20002324     0x30  osif_cfg.o [1]
  .bss                  zero     0x20002354     0x78  osif_cfg.o [1]
  .bss                  zero     0x200023cc     0x18  selftest.o [1]
  .bss                  zero     0x200023e4    0x100  sha256.o [1]
  .bss                  zero     0x200024e4     0x10  stm_flash.o [1]
  .bss                  zero     0x200024f4      0x8  stm_watchdogff.o [1]
  .bss                  zero     0x200024fc      0x4  mnassert.o [1]
  .bss                  zero     0x20002500     0x50  smdls.o [3]
  .bss                  zero     0x20002550     0x2c  smdls.o [3]
  .bss                  zero     0x2000257c     0x21  smdls.o [3]
  .bss                  zero     0x2000259d      0x2  appl_res.o [1]
  .bss                  zero     0x2000259f      0x1  mncharactff.o [1]
  .bss                  zero     0x200025a0      0x4  OSGLOBAL.o [7]
  .bss                  zero     0x200025a4      0x4  OSGLOBAL.o [7]
  .bss                  zero     0x200025a8      0x4  OSGLOBAL.o [7]
  .bss                  zero     0x200025ac      0x4  OSTERM.o [7]
  .bss                  zero     0x200025b0    0x140  tmp_hi.o [3]
  .bss                  zero     0x200026f0     0x18  dlmalloc.o [4]
  .bss                  zero     0x20002708    0x1d4  dlmalloc.o [4]
  .bss                  zero     0x200028dc      0x4  xgetmemchunk.o [4]
  .bss                  zero     0x200028e0      0x1  lui_ipc_variables.o [1]
  .bss                  zero     0x200028e1      0x1  mnipcff.o [1]
  .bss                  zero     0x200028e2      0x1  appl_ptb.o [1]
  .bss                  zero     0x200028e3      0x1  stubs_app.o [1]
  .bss                  zero     0x200028e4      0x1  hw_io.o [1]
  .bss                  zero     0x200028e5      0x1  OSGLOBAL.o [7]
  .bss                  zero     0x200028e6      0x1  OSGLOBAL.o [7]
  .noinit               uninit   0x200028e8     0x14  ffbl_bas.o [1]
  .noinit               uninit   0x200028fc      0xc  ffbl_ai.o [1]
  .noinit               uninit   0x20002908     0x1c  ffbl_pai.o [1]
  .noinit               uninit   0x20002924     0x34  ffbl_mo.o [1]
  .noinit               uninit   0x20002958      0x4  ffbl_ar.o [1]
  .noinit               uninit   0x2000295c    0x288  instance.o [1]
  .noinit               uninit   0x20002be4    0x190  instance.o [1]
  .noinit               uninit   0x20002d74    0x190  instance.o [1]
  .noinit               uninit   0x20002f04    0x190  instance.o [1]
  .noinit               uninit   0x20003094    0x12c  instance.o [1]
  .noinit               uninit   0x200031c0     0xd8  instance.o [1]
  .noinit               uninit   0x20003298     0xd8  instance.o [1]
  .noinit               uninit   0x20003370     0xc0  instance.o [1]
  .noinit               uninit   0x20003430     0xc0  instance.o [1]
  .noinit               uninit   0x200034f0     0xdc  instance.o [1]
  .noinit               uninit   0x200035cc    0x26c  instance.o [1]
  .noinit               uninit   0x20003838    0x26c  instance.o [1]
  .noinit               uninit   0x20003aa4     0xe0  instance.o [1]
  .noinit               uninit   0x20003b84    0x118  instance.o [1]
  .noinit               uninit   0x20003c9c    0xaa4  instance.o [1]
  .noinit               uninit   0x20004740     0xf4  instance.o [1]
  .noinit               uninit   0x20004834    0x134  instance.o [1]
  .noinit               uninit   0x20004968     0x4c  appl_dia.o [1]
  .noinit               uninit   0x200049b4     0xa4  appl_dlh.o [1]
  .noinit               uninit   0x20004a58     0x24  appl_svi_swdl.o [1]
  .noinit               uninit   0x20004a7c      0xc  appl_alert.o [1]
  .noinit               uninit   0x20004a88     0xc8  appl_ptb.o [1]
  .noinit               uninit   0x20004b50     0x20  hm.o [1]
  .noinit               uninit   0x20004b70     0x7c  hm.o [1]
  .noinit               uninit   0x20004bec     0x7c  hm.o [1]
  .noinit               uninit   0x20004c68     0xd8  hm_task.o [1]
  .noinit               uninit   0x20004d40     0x20  hm_task.o [1]
  .noinit               uninit   0x20004d60      0xc  hm_task.o [1]
  .noinit               uninit   0x20004d6c      0x4  hw_init.o [1]
  .noinit               uninit   0x20004d70    0x140  eep_if.o [1]
  .noinit               uninit   0x20004eb0      0xc  eep_if.o [1]
  .noinit               uninit   0x20004ebc     0x18  osif_mn.o [1]
  .noinit               uninit   0x20004ed4    0x134  osif_tsk.o [1]
  .noinit               uninit   0x20005008    0x18c  osif_tim.o [1]
  .noinit               uninit   0x20005194      0xc  osif_tim.o [1]
  .noinit               uninit   0x200051a0    0x100  osif_cfg.o [1]
  .noinit               uninit   0x200052a0    0x300  osif_cfg.o [1]
  .noinit               uninit   0x200055a0    0x200  osif_cfg.o [1]
  .noinit               uninit   0x200057a0    0x100  osif_cfg.o [1]
  .noinit               uninit   0x200058a0    0x280  osif_cfg.o [1]
  .noinit               uninit   0x20005b20    0x800  osif_cfg.o [1]
  .noinit               uninit   0x20006320    0x600  osif_cfg.o [1]
  .noinit               uninit   0x20006920    0x300  osif_cfg.o [1]
  .noinit               uninit   0x20006c20    0x300  osif_cfg.o [1]
  .noinit               uninit   0x20006f20    0x500  osif_cfg.o [1]
  .noinit               uninit   0x20007420      0xc  mnassert.o [1]
  .noinit               uninit   0x2000742c     0x90  fbs_alt.o [5]
  .noinit               uninit   0x200074bc    0x324  fbs_fbif.o [5]
  .noinit               uninit   0x200077e0    0x280  fbs_fbif.o [5]
  .noinit               uninit   0x20007a60     0x10  fbs_run.o [5]
  .noinit               uninit   0x20007a70     0x64  fbs_run.o [5]
  .noinit               uninit   0x20007ad4     0x30  fbs_nv.o [5]
  .noinit               uninit   0x20007b04    0x220  fbs_nv.o [5]
  .noinit               uninit   0x20007d24     0x40  fbs_nv.o [5]
  .noinit               uninit   0x20007d64      0x4  fbs_nv.o [5]
  .noinit               uninit   0x20007d68      0x8  fdc.o [3]
  .noinit               uninit   0x20007d70     0x48  fdc.o [3]
  .noinit               uninit   0x20007db8     0x14  fdc.o [3]
  .noinit               uninit   0x20007dcc     0x14  smdls.o [3]
  .noinit               uninit   0x20007de0     0x50  sm.o [3]
  .noinit               uninit   0x20007e30    0x714  sm.o [3]
  .noinit               uninit   0x20008544     0x2c  dll_spc4.o [3]
  .noinit               uninit   0x20008570     0x5c  fbs_init.o [5]
  .noinit               uninit   0x200085cc      0x8  fbs_init.o [5]
  .noinit               uninit   0x200085d4     0x28  fbs_init.o [5]
  .noinit               uninit   0x200085fc    0x1a0  fbs_vfd.o [5]
  .noinit               uninit   0x2000879c     0x3c  fbs_vfd.o [5]
  .noinit               uninit   0x200087d8     0x1e  fbs_vfd.o [5]
  .noinit               uninit   0x200087f6      0x2  stubs_app.o [1]
  .noinit               uninit   0x200087f8      0x4  fbs_vfd.o [5]
  .noinit               uninit   0x200087fc     0x28  fbs_vfd.o [5]
  .noinit               uninit   0x20008824     0x30  fbs_vfd.o [5]
  .noinit               uninit   0x20008854    0x100  fbs_vfd.o [5]
  .noinit               uninit   0x20008954    0x100  fbs_vfd.o [5]
  .noinit               uninit   0x20008a54    0x100  fbs_vfd.o [5]
  .noinit               uninit   0x20008b54   0x1180  fbs_vfd.o [5]
  .noinit               uninit   0x20009cd4     0x80  fbs_vfd.o [5]
  .noinit               uninit   0x20009d54     0x34  fbs_vfd.o [5]
  .noinit               uninit   0x20009d88     0x14  fbs_if.o [5]
  .noinit               uninit   0x20009d9c     0x24  fdc_bgd.o [3]
  .noinit               uninit   0x20009dc0      0x8  smtim.o [3]
  .noinit               uninit   0x20009dc8      0x4  fbs_trd.o [5]
  .noinit               uninit   0x20009dcc     0x10  fbs_mvc.o [5]
  .noinit               uninit   0x20009ddc    0x180  fbs_mvc.o [5]
  .noinit               uninit   0x20009f5c    0x180  fbs_mvc.o [5]
  .noinit               uninit   0x2000a0dc    0x100  fbs_mvc.o [5]
  .noinit               uninit   0x2000a1dc     0x20  fbs_scd.o [5]
  .noinit               uninit   0x2000a1fc      0x8  nmcfg.o [3]
  .noinit               uninit   0x2000a204     0x34  nmcfg.o [3]
  .noinit               uninit   0x2000a238      0xc  dll_cfg.o [3]
  .noinit               uninit   0x2000a244      0x8  dll_cfg.o [3]
  .noinit               uninit   0x2000a24c      0x4  dll_bas.o [3]
  .noinit               uninit   0x2000a250      0x4  dll_bas.o [3]
  .noinit               uninit   0x2000a254      0x4  dll_bas.o [3]
  .noinit               uninit   0x2000a258      0x4  dll_bas.o [3]
  .noinit               uninit   0x2000a25c     0x78  dll_bas.o [3]
  .noinit               uninit   0x2000a2d4    0x33c  dll_bas.o [3]
  .noinit               uninit   0x2000a610     0x10  dll_bas.o [3]
  .noinit               uninit   0x2000a620      0x4  dll_bas.o [3]
  .noinit               uninit   0x2000a624      0x4  dll_bas.o [3]
  .noinit               uninit   0x2000a628      0x4  dll_bas.o [3]
  .noinit               uninit   0x2000a62c      0x4  dll_bas.o [3]
  .noinit               uninit   0x2000a630    0x6a8  dll_bas.o [3]
  .noinit               uninit   0x2000acd8      0x4  dll_bas.o [3]
  .noinit               uninit   0x2000acdc     0x20  dll_bas.o [3]
  .noinit               uninit   0x2000acfc     0x20  dll_bas.o [3]
  .noinit               uninit   0x2000ad1c      0x8  dll_bas.o [3]
  .noinit               uninit   0x2000ad24      0x8  dll_bas.o [3]
  .noinit               uninit   0x2000ad2c     0x20  dll_bas.o [3]
  .noinit               uninit   0x2000ad4c    0x100  dll_bas.o [3]
  .noinit               uninit   0x2000ae4c      0xc  dll_bas.o [3]
  .noinit               uninit   0x2000ae58     0x10  dll_bas.o [3]
  .noinit               uninit   0x2000ae68     0x14  dll_bas.o [3]
  .noinit               uninit   0x2000ae7c      0x8  dll_bas.o [3]
  .noinit               uninit   0x2000ae84     0x10  dll_bas.o [3]
  .noinit               uninit   0x2000ae94     0x88  dll_bas.o [3]
  .noinit               uninit   0x2000af1c      0xc  dll_bas.o [3]
  .noinit               uninit   0x2000af28     0x48  dll_bas.o [3]
  .noinit               uninit   0x2000af70     0x48  dll_bas.o [3]
  .noinit               uninit   0x2000afb8    0x100  dll_bas.o [3]
  .noinit               uninit   0x2000b0b8    0x3c0  dll_bas.o [3]
  .noinit               uninit   0x2000b478    0x1e0  dll_bas.o [3]
  .noinit               uninit   0x2000b658    0x230  dll_bas.o [3]
  .noinit               uninit   0x2000b888   0x1804  dll_bas.o [3]
  .noinit               uninit   0x2000d08c     0x24  dll_las.o [3]
  .noinit               uninit   0x2000d0b0    0x100  dll_las.o [3]
  .noinit               uninit   0x2000d1b0      0x8  dll_las.o [3]
  .noinit               uninit   0x2000d1b8     0x20  dll_las.o [3]
  .noinit               uninit   0x2000d1d8     0x20  dll_las.o [3]
  .noinit               uninit   0x2000d1f8     0x20  dll_las.o [3]
  .noinit               uninit   0x2000d218      0x8  dll_las.o [3]
  .noinit               uninit   0x2000d220     0x50  faltsk.o [3]
  .noinit               uninit   0x2000d270   0x32fc  falvcr.o [3]
  .noinit               uninit   0x2001056c    0xa28  falvcr.o [3]
  .noinit               uninit   0x20010f94     0x14  falvcr.o [3]
  .noinit               uninit   0x20010fa8      0xc  fmg.o [3]
  .noinit               uninit   0x20010fb4      0x8  fmg.o [3]
  .noinit               uninit   0x20010fbc      0x8  tmp_hi.o [3]
  .noinit               uninit   0x20010fc4      0x8  tmp_hi.o [3]
  .noinit               uninit   0x20010fcc     0x1c  nmif.o [3]
  .noinit               uninit   0x20010fe8     0x10  faltim.o [3]
  .noinit               uninit   0x20010ff8    0xfbc  faltim.o [3]
  .noinit               uninit   0x20011fb4     0x94  fbs_od.o [5]
  .noinit               uninit   0x20012048    0x3d8  nmvcr.o [3]
  .noinit               uninit   0x20012420     0x9c  dll_drx.o [3]
  .noinit               uninit   0x200124bc     0x17  dll_lrx.o [3]
  .noinit               uninit   0x200124d3      0x1  hm_if.o [1]
  .noinit               uninit   0x200124d4      0xc  dll_ltx.o [3]
  .noinit               uninit   0x200124e0     0x54  nmdom.o [3]
  .noinit               uninit   0x20012534     0x20  nmdom.o [3]
  .noinit               uninit   0x20012554    0x488  nmdom.o [3]
  .noinit               uninit   0x200129dc     0x18  faldll.o [3]
  .noinit               uninit   0x200129f4     0x14  nmod.o [3]
  .noinit               uninit   0x20012a08     0x88  nmod.o [3]
  .noinit               uninit   0x20012a90      0x2  dll_bas.o [3]
  .noinit               uninit   0x20012a92      0x2  dll_bas.o [3]
  .noinit               uninit   0x20012a94      0x2  dll_bas.o [3]
  .noinit               uninit   0x20012a96      0x2  dll_bas.o [3]
  .noinit               uninit   0x20012a98      0x2  dll_bas.o [3]
  .noinit               uninit   0x20012a9a      0x2  dll_bas.o [3]
  .noinit               uninit   0x20012a9c      0x2  dll_bas.o [3]
  .noinit               uninit   0x20012a9e      0x2  dll_bas.o [3]
  .noinit               uninit   0x20012aa0      0x2  dll_bas.o [3]
  .noinit               uninit   0x20012aa2      0x2  dll_bas.o [3]
  .noinit               uninit   0x20012aa4      0x2  dll_bas.o [3]
  .noinit               uninit   0x20012aa6      0x2  dll_bas.o [3]
  .noinit               uninit   0x20012aa8      0x2  dll_ltim.o [3]
  .noinit               uninit   0x20012aaa      0x1  fbs_blk.o [5]
  .noinit               uninit   0x20012aab      0x1  smtim.o [3]
  .noinit               uninit   0x20012aac      0x2  fbs_scd.o [5]
  .noinit               uninit   0x20012aae      0x1  dll_bas.o [3]
  .noinit               uninit   0x20012aaf      0x1  dll_bas.o [3]
  .noinit               uninit   0x20012ab0      0x1  dll_bas.o [3]
  .noinit               uninit   0x20012ab1      0x1  dll_bas.o [3]
  .noinit               uninit   0x20012ab2      0x1  dll_bas.o [3]
  .noinit               uninit   0x20012ab3      0x1  dll_bas.o [3]
  .noinit               uninit   0x20012ab4      0x1  dll_bas.o [3]
  .noinit               uninit   0x20012ab5      0x1  dll_bas.o [3]
  .noinit               uninit   0x20012ab6      0x1  dll_bas.o [3]
  .noinit               uninit   0x20012ab7      0x1  dll_bas.o [3]
  .noinit               uninit   0x20012ab8      0x1  dll_bas.o [3]
  .noinit               uninit   0x20012ab9      0x1  dll_bas.o [3]
  .noinit               uninit   0x20012aba      0x1  dll_bas.o [3]
  .noinit               uninit   0x20012abb      0x1  dll_bas.o [3]
  .noinit               uninit   0x20012abc      0x1  dll_bas.o [3]
  .noinit               uninit   0x20012abd      0x1  dll_bas.o [3]
  .noinit               uninit   0x20012abe      0x1  dll_bas.o [3]
  .noinit               uninit   0x20012abf      0x1  dll_bas.o [3]
  .noinit               uninit   0x20012ac0      0x5  nmvcr.o [3]
                               - 0x20012ac5  0x12ac5

"P3":                                        0x1bbf0
  EEP_IMAGE             uninit   0x60000000   0x7fec  eep_if.o [1]
  EEP_IMAGE             uninit   0x60007fec   0x1400  eep_if.o [1]
  EEP_IMAGE             uninit   0x600093ec   0x2800  eep_if.o [1]
  HEAP                           0x6000bbf0  0x10000  <Block>
    HEAP                uninit   0x6000bbf0  0x10000  <Block tail>
                               - 0x6001bbf0  0x1bbf0


*******************************************************************************
*** INIT TABLE
***

          Address     Size
          -------     ----
Zero (__iar_zero_init3)
    1 destination range, total size 0x161f:
          0x200012c8  0x161f

Copy (__iar_copy_init3)
    1 source range, total size 0x238:
          0x080c5130   0x238
    1 destination range, total size 0x238:
          0x20001000   0x238

Copy (__iar_copy_init3)
    1 source range, total size 0x90:
          0x080c5368    0x90
    1 destination range, total size 0x90:
          0x20001238    0x90



*******************************************************************************
*** MODULE SUMMARY
***

    Module                         ro code  ro data  rw data
    ------                         -------  -------  -------
C:\tfsbuildR\SVIFF\Release2\FD-SW\cmdbuild\Rel\project_FFP: [1]
    aifb.o                                    3 480
    aofb.o                                    2 972
    app_mode.o                          48
    appl_alert.o                     2 857        3    1 122
    appl_dia.o                         520                76
    appl_dlh.o                         820       40      164
    appl_if.o                          953      192        8
    appl_nrv.o                          26
    appl_ptb.o                       2 748       66      234
    appl_res.o                         260                 2
    appl_svi_swdl.o                     36                36
    arfb.o                                    3 388
    bufutils.o                         145
    chsum.o                             22
    controller_pid.o                 2 306
    cortextrap.o                        44
    cortextrapc.o                       40
    crc.o                              644
    csfb.o                                    2 372
    ctrl_param_set.o                   868
    difb.o                                    2 480
    dofb.o                                    2 592
    eep_blk2.o                         312
    eep_blk3.o                         388
    eep_if.o                         3 392       76   48 550
    endofimage.o                         6
    fault2alert.o                               426
    fbif_dsc.o                                1 540
    ffactoryuse.o                      600
    ffbl_ai.o                        3 044                12
    ffbl_ao.o                        3 596
    ffbl_ar.o                        3 260                 4
    ffbl_bas.o                       1 316                20
    ffbl_cs.o                        1 910
    ffbl_di.o                        1 754
    ffbl_do.o                        2 986
    ffbl_fd.o                          960       88       88
    ffbl_is.o                        1 800
    ffbl_krn.o                          20
    ffbl_mai.o                         904
    ffbl_mo.o                        1 432                52
    ffbl_os.o                        3 116
    ffbl_pai.o                         310                28
    ffbl_pao.o                          68
    ffbl_pid.o                       6 892
    ffbl_res.o                       1 511        4        2
    ffp_hmac.o                         128
    histogram.o                      1 100       60      204
    hm.o                             1 700               332
    hm_dma.o                           136
    hm_if.o                            136                 1
    hm_task.o                        1 048        4      264
    hw_hm.o                            316
    hw_i2c.o                           959                60
    hw_init.o                          560                36
    hw_intr.o                          118      316        4
    hw_io.o                            528                 1
    hw_os.o                            124        4
    hw_periph_cfg.o                  1 464
    hw_tim.o                           180
    instance.o                                1 588    8 204
    isfb.o                                    2 488
    lui_ipc_variables.o              1 940                95
    maifb.o                                   2 008
    misc.o                             144
    mn_actuator_3.o                    328
    mn_advanced.o                    1 016                56
    mn_block_header.o                   62
    mn_checkproc.o                      36
    mn_clear_status.o                   36
    mn_cycle_counter_alert.o           160
    mn_deviation_alert.o               376
    mn_diagnostic_configuration.o      232
    mn_errorbits.o                     113                 4
    mn_factory_defaults.o              666
    mn_failed_state.o                   46
    mn_flash_selftest.o                235        4        4
    mn_fstate.o                        976       17       17
    mn_fwdl.o                        1 312       83      166
    mn_fwdl_hart.o                     256               120
    mn_grant_deny.o                     56
    mn_ip_drive_current_alert.o        148
    mn_near_closed_alert.o             268
    mn_remote_sensor.o                 196
    mn_supply_pressure_alert.o         724
    mn_temperature_alert.o             112
    mn_travel_accumulation.o           160
    mn_travel_units.o                  600
    mn_trends.o                        928      116      116
    mn_ui_access_control.o             190
    mn_working_times.o                 308                 4
    mn_xd_errors.o                     252
    mnassert.o                         428                16
    mncbdefs.o                                   28
    mncharactff.o                      964                77
    mnctllimff.o                       926
    mndiagprocff.o                     906
    mndoswff.o                         792        4        4
    mnfaultsimport.o                   176
    mnfindstopsff.o                    742
    mnhart2ff.o                         98        8
    mnipcff.o                        1 136        2       11
    mnptberrors.o                      340       14       12
    mnptbexec.o                        940        3        3
    mntbmspff.o                      1 382
    osfb.o                                    2 544
    osif_cfg.o                                  320    9 696
    osif_mn.o                          188                24
    osif_tim.o                         908               408
    osif_tsk.o                       2 046        8    1 792
    pidfb.o                                   5 876
    poschrtab.o                                 440
    pressure_range.o                   624
    ptb.o                                    12 496
    resb.o                                    5 972
    selftest.o                         204                24
    sha256.o                           912               368
    spec_ds.o                           32   12 376
    stm32f10x_exti.o                   120
    stm32f10x_fsmc.o                    32
    stm32f10x_gpio.o                   436
    stm32f10x_rcc.o                    280       20       20
    stm32f10x_tim.o                    312
    stm32f10x_usart.o                  224
    stm_flash.o                        636                16
    stm_timer.o                        128
    stm_watchdogff.o                   231                 8
    stubs_app.o                        112                 3
    ui_language.o                       56
    --------------------------------------------------------
    Total:                          88 598   66 518   72 568

command line: [2]
    --------------------------------------------------------
    Total:

base.a: [3]
    dll_acc.o                        3 842
    dll_addr.o                         420
    dll_bas.o                          512            11 882
    dll_cfg.o                          544                20
    dll_drx.o                        3 860      198      156
    dll_las.o                        5 036               404
    dll_list.o                       4 256
    dll_lrx.o                        2 864      108       23
    dll_ltim.o                         444      108        2
    dll_ltx.o                        1 688                12
    dll_msg.o                          684
    dll_spc4.o                       3 236                44
    falabt.o                         1 048
    falass.o                           208
    falaux.o                             4
    faldll.o                         2 030                24
    falfms.o                         1 418
    falopn.o                            30
    falpub.o                           228
    falsnd.o                           216
    falsrv.o                           982
    falsub.o                           350
    faltim.o                         1 176             4 044
    faltsk.o                         1 040                80
    falvcr.o                         3 264            15 672
    fdc.o                            1 848               100
    fdc_bgd.o                          376                36
    fdc_wd.o                             4
    fmg.o                              354      136       20
    fmscod.o                         1 336
    fmsif.o                            584
    mib.o                                     5 236
    nmcfg.o                          3 980                60
    nmdom.o                          2 316             1 276
    nmif.o                             616                28
    nmod.o                           1 624               156
    nmvcr.o                            904               989
    sm.o                             5 084             1 892
    smdls.o                          2 611               177
    smtim.o                          1 348                 9
    tmp_hi.o                         2 076               336
    tmp_lo.o                           556
    --------------------------------------------------------
    Total:                          64 997    5 786   37 442

dl7M_tln.a: [4]
    abort.o                              6
    dlmalloc.o                       5 128               492
    errno.o                             12        4        4
    exit.o                               4
    labs.o                               8
    rand.o                             224      140      140
    srand.o                             32
    xgetmemchunk.o                      44                 4
    --------------------------------------------------------
    Total:                           5 458      144      640

ffbs.a: [5]
    fbs_acc.o                        2 328
    fbs_alt.o                        3 670               144
    fbs_blk.o                          373                 1
    fbs_fbif.o                         600             1 444
    fbs_if.o                           840                20
    fbs_init.o                       2 448               140
    fbs_mvc.o                        4 648             1 040
    fbs_nv.o                         3 948               660
    fbs_od.o                         2 156               148
    fbs_run.o                        7 584               116
    fbs_rw.o                         1 952
    fbs_scd.o                          316                34
    fbs_trd.o                          892                 4
    fbs_vfd.o                        3 456    4 320    6 026
    --------------------------------------------------------
    Total:                          35 211    4 320    9 777

m7M_tl.a: [6]
    DblAdd.o                           232
    DblCmpEq.o                          32
    DblCmpGe.o                          46
    DblCmpLe.o                          46
    DblDiv.o                           582
    DblMul.o                           418
    DblSub.o                           384
    DblToFlt.o                         144
    DblToI32.o                          76
    FltAdd.o                           132
    FltCmpEq.o                          28
    FltCmpGe.o                          36
    FltCmpLe.o                          36
    FltDiv.o                           252
    FltMul.o                           216
    FltSub.o                           230
    FltToDbl.o                          78
    FltToS32.o                          68
    FltToU32.o                          36
    I32ToDbl.o                          48
    I32ToFlt.o                          50
    floorf.o                            52
    lroundf.o                           64
    pow.o                            2 144
    roundf.o                            40
    sqrt.o                             240
    xdint.o                            126
    xdnorm.o                            66
    xdscale.o                          268
    xdtest.o                            50
    xexp.o                             676
    xfdtest.o                           42
    xlog.o                             168
    --------------------------------------------------------
    Total:                           7 106

os7m_tl__S.a: [7]
    OSEVENGE.o                          16
    OSEVENS.o                           72
    OSEVENW.o                           72
    OSEVENWS.o                          76
    OSGLOBAL.o                                   44       58
    OSISTASK.o                          40
    OSKERN.o                           940
    OSMAIL.o                            24
    OSRSEM.o                           236
    OSRSEMRQ.o                          44
    OSSETP.o                            68
    OSTERM.o                                               4
    OSTIME.o                           376
    OSTimeS.o                           40
    OS_CreateTaskEx.o                  124
    OS_DeactivateP.o                    60
    OS_InitMode.o                       28
    OS_StackInfo.o                      12
    OS_TICK_Handle.o                    68
    OS_Wait.o                           44
    rtos.o                             236
    xtls.o                              24
    --------------------------------------------------------
    Total:                           2 600       44       62

rt7M_tl.a: [8]
    ABImemclr.o                          6
    ABImemclr4.o                         6
    ABImemcpy.o                        118
    ABImemset.o                        102
    ABImemset48.o                       58
    U64Shr.o                            30
    XXexit.o                            12
    cexit.o                             10
    cmain.o                             22
    copy_init3.o                        46
    cstartup_M.o                        12
    data_init.o                         40
    iarEdom.o                           12
    memcmp.o                            98
    strcmp.o                            66
    strlen.o                            54
    zero_init3.o                        34
    --------------------------------------------------------
    Total:                             726

    Gaps                                84                 8
    Linker created                               58   69 632
------------------------------------------------------------
    Grand Total:                   204 780   76 870  190 129


*******************************************************************************
*** ENTRY LIST
***

Entry                      Address    Size  Type      Object
-----                      -------    ----  ----      ------
.intvec$$Base           0x08080800           --   Gb  - Linker created -
.intvec$$Limit          0x0808093c           --   Gb  - Linker created -
?main                   0x080ac551          Code  Gb  cmain.o [8]
ADCPrescTable           0x20001208     0x4  Data  Lc  stm32f10x_rcc.o [1]
APBAHBPrescTable        0x200011f8    0x10  Data  Lc  stm32f10x_rcc.o [1]
ActDataLen              0x20012428     0x2  Data  Lc  dll_drx.o [3]
ActFbcTimeId            0x20008547     0x1  Data  Lc  dll_spc4.o [3]
Addr                    0x2000a624     0x4  Data  Gb  dll_bas.o [3]
AddrMsk                 0x20012421     0x1  Data  Lc  dll_drx.o [3]
AddrOffs                0x20012422     0x1  Data  Lc  dll_drx.o [3]
AlarmConfXlate          0x0809d974     0x8  Data  Lc  mnptberrors.o [1]
AlertFunctionTable      0x0809f5bc    0xc8  Data  Lc  appl_alert.o [1]
AlertHandle_Counter     0x0809ed51    0xa6  Code  Lc  appl_alert.o [1]
AlertHandle_Deviation   0x0809f121    0xcc  Code  Lc  appl_alert.o [1]
AlertHandle_IPCurrent   0x0809ef39   0x110  Code  Lc  appl_alert.o [1]
AlertHandle_NearClosed  0x0809f089    0x98  Code  Lc  appl_alert.o [1]
AlertHandle_Position    0x0809ebd3    0xbc  Code  Lc  appl_alert.o [1]
AlertHandle_SPTimeout   0x0809eee7    0x52  Code  Lc  appl_alert.o [1]
AlertHandle_System      0x0809edfd    0xea  Code  Lc  appl_alert.o [1]
AlertHandle_TravelAcc   0x0809ec8f    0xc2  Code  Lc  appl_alert.o [1]
AlertHandle_WorkingTime
                        0x0809f049    0x40  Code  Lc  appl_alert.o [1]
Alert_AirSupply         0x0809f2a3    0x3a  Code  Gb  appl_alert.o [1]
Alert_Deviation         0x200014b8     0x8  Data  Lc  appl_alert.o [1]
Alert_ExpireAssertHook  0x0809f523    0x6c  Code  Gb  appl_alert.o [1]
Alert_IPCStateMachineExecuted
                        0x0809f1ed    0x16  Code  Gb  appl_alert.o [1]
Alert_IPCurHandle       0x200014a0    0x10  Data  Lc  appl_alert.o [1]
Alert_InitAlertLog      0x0809f49d    0x86  Code  Gb  appl_alert.o [1]
Alert_PositionHI        0x0809f2f3    0x16  Code  Gb  appl_alert.o [1]
Alert_PositionLO        0x0809f309    0x16  Code  Gb  appl_alert.o [1]
Alert_ReadAlertLogEntry
                        0x0809f3eb    0x5a  Code  Gb  appl_alert.o [1]
Alert_SPTimeout_TimeStamp
                        0x20001474     0x4  Data  Lc  appl_alert.o [1]
Alert_TravelDeviation   0x0809f2dd    0x16  Code  Gb  appl_alert.o [1]
Alert_WriteAlertLogEntry
                        0x0809f46d    0x30  Code  Gb  appl_alert.o [1]
AlertsEtcIF             0x200010a8     0xc  Data  Lc  mnptberrors.o [1]
Alerts_Stable           0x20001479     0x1  Data  Lc  appl_alert.o [1]
ApplDiag                0x20004968    0x4c  Data  Lc  appl_dia.o [1]
Appl_DeviceID           0x2000105c     0x4  Data  Lc  appl_if.o [1]
Appl_UpdateSerialNumber
                        0x080991b3     0x6  Code  Gb  appl_if.o [1]
Appl_activate_software  0x0809aa31    0x18  Code  Gb  appl_dlh.o [1]
Appl_background_RESB    0x080ab4d5    0x62  Code  Gb  appl_res.o [1]
Appl_cancel_download    0x0809a985    0x5c  Code  Gb  appl_dlh.o [1]
Appl_check_channel_unit
                        0x0809cd99    0xca  Code  Gb  appl_ptb.o [1]
Appl_check_restart_flag
                        0x080ab539     0x6  Code  Gb  appl_res.o [1]
Appl_download_header    0x0809a9ed    0x1c  Code  Gb  appl_dlh.o [1]
Appl_download_segment   0x0809aa09    0x28  Code  Gb  appl_dlh.o [1]
Appl_get_default_value  0x080ab537     0x2  Code  Gb  appl_res.o [1]
Appl_get_diagnostic_value
                        0x0809ae29    0x14  Code  Gb  appl_dia.o [1]
Appl_get_recommend_fd_action
                        0x0809ae3d    0x36  Code  Gb  appl_dia.o [1]
Appl_handle_HART_cmd    0x0809d69b    0xc8  Code  Lc  appl_ptb.o [1]
Appl_prepare_download   0x0809a95d    0x28  Code  Gb  appl_dlh.o [1]
Appl_read_handler_RESB  0x080ab449     0x4  Code  Gb  appl_res.o [1]
Appl_reset_restart_flag
                        0x080ab53f     0x8  Code  Gb  appl_res.o [1]
Appl_set_HART_status    0x0809d763    0x7e  Code  Lc  appl_ptb.o [1]
Appl_verify_nv_ram      0x080ac927    0x1a  Code  Gb  appl_nrv.o [1]
Appl_write_handler_RESB
                        0x080ab44d    0x88  Code  Gb  appl_res.o [1]
Background_AIFB         0x080a42d9     0x2  Code  Gb  ffbl_ai.o [1]
Background_AOFB         0x080a55bf    0x6a  Code  Gb  ffbl_ao.o [1]
Background_ARFB         0x080a75ad     0x2  Code  Gb  ffbl_ar.o [1]
Background_CSFB         0x080ac1b9     0x2  Code  Gb  ffbl_cs.o [1]
Background_DIFB         0x080a6391     0x2  Code  Gb  ffbl_di.o [1]
Background_DOFB         0x080a6d8b    0x6a  Code  Gb  ffbl_do.o [1]
Background_ISFB         0x080a804d     0x2  Code  Gb  ffbl_is.o [1]
Background_MAIFB        0x080ac8dd     0x2  Code  Gb  ffbl_mai.o [1]
Background_OSFB         0x080a8879    0x94  Code  Gb  ffbl_os.o [1]
Background_PIDFB        0x080aa549    0x6a  Code  Gb  ffbl_pid.o [1]
Background_PTB          0x0809cf23    0x8a  Code  Gb  appl_ptb.o [1]
Background_RESB         0x0809b241   0x218  Code  Gb  ffbl_res.o [1]
BankCtrlReg             0x200024ec     0x4  Data  Lc  stm_flash.o [1]
Base_ptr_shadow         0x20008546     0x1  Data  Lc  dll_spc4.o [3]
Build_subscr_link       0x080b2d3b    0x28  Code  Lc  fbs_init.o [5]
CSTACK$$Base            0x20000000           --   Gb  - Linker created -
CSTACK$$Limit           0x20001000           --   Gb  - Linker created -
Calc_block_mode         0x080a5815   0x2dc  Code  Gb  ffbl_mo.o [1]
Calc_block_mode_AOFB    0x080a5629    0xa4  Code  Lc  ffbl_ao.o [1]
Calc_block_mode_DOFB    0x080a6df5    0xa8  Code  Lc  ffbl_do.o [1]
Calc_block_mode_OSFB    0x080a8a37   0x1a0  Code  Lc  ffbl_os.o [1]
Calc_block_mode_PIDFB   0x080aa5b3    0xf8  Code  Lc  ffbl_pid.o [1]
Calc_timer_values_PIDFB
                        0x080aaa3b    0xbe  Code  Lc  ffbl_pid.o [1]
CheckDstAddress         0x080b94d7   0x394  Code  Lc  dll_drx.o [3]
CheckSrcAddress         0x080b9933   0x132  Code  Lc  dll_drx.o [3]
Check_config_AIFB       0x080a464f   0x11c  Code  Lc  ffbl_ai.o [1]
Check_config_AOFB       0x080a5721    0x9c  Code  Lc  ffbl_ao.o [1]
Check_config_ARFB       0x080a7c8d    0x64  Code  Lc  ffbl_ar.o [1]
Check_config_CSFB       0x080ac1bb    0xac  Code  Lc  ffbl_cs.o [1]
Check_config_DIFB       0x080a643b    0x4c  Code  Lc  ffbl_di.o [1]
Check_config_DOFB       0x080a6f39    0x82  Code  Lc  ffbl_do.o [1]
Check_config_ISFB       0x080a804f    0x30  Code  Lc  ffbl_is.o [1]
Check_config_MAIFB      0x080ac8df    0x48  Code  Lc  ffbl_mai.o [1]
Check_config_OSFB       0x080a890d    0x58  Code  Lc  ffbl_os.o [1]
Check_config_PIDFB      0x080aa931   0x10a  Code  Lc  ffbl_pid.o [1]
Check_current_fault_state
                        0x080a5b81    0x54  Code  Lc  ffbl_mo.o [1]
Check_fault_state_timeout
                        0x080a5bd5    0x42  Code  Lc  ffbl_mo.o [1]
Check_record            0x080b1afd    0x9c  Code  Lc  fbs_run.o [5]
Check_shedding_condition
                        0x080a5c17    0xec  Code  Lc  ffbl_mo.o [1]
ChkAddr                 0x20012423     0x1  Data  Lc  dll_drx.o [3]
Clear_alarms_PIDFB      0x080aa6d1    0xce  Code  Lc  ffbl_pid.o [1]
Clear_lim_alarms_AIFB   0x080a448b    0x8c  Code  Lc  ffbl_ai.o [1]
CloseFlashPartition     0x0809c549     0xe  Code  Lc  mn_fwdl.o [1]
CopyAlertLog4Read       0x0809f32b    0x60  Code  Lc  appl_alert.o [1]
Correct_timer_flag      0x2000d0aa     0x1  Data  Lc  dll_las.o [3]
Cortex_Trap             0x080ac3e1          Code  Gb  cortextrap.o [1]
Cortex_TrapC            0x080ac3b9    0x10  Code  Gb  cortextrapc.o [1]
CountNewPeriodValueForCycleCounter
                        0x080a0483     0x2  Code  Lc  mn_trends.o [1]
CountNewPeriodValueForPositionErr
                        0x080a048b    0x24  Code  Lc  mn_trends.o [1]
CountNewPeriodValueForTraveAcc
                        0x080a0481     0x2  Code  Lc  mn_trends.o [1]
Cpu_freq                0x2000855c     0x4  Data  Lc  dll_spc4.o [3]
Crc16                   0x08095ab9    0x24  Code  Gb  crc.o [1]
CycCounter              0x20001490    0x10  Data  Lc  appl_alert.o [1]
DISABLE_INTERRUPTS      0x08095583    0x12  Code  Gb  osif_tsk.o [1]
DMA_Clear_int           0x0809de4b    0x1e  Code  Gb  hm_dma.o [1]
DMA_ConfigUART          0x0809de09    0x42  Code  Gb  hm_dma.o [1]
DMA_SetUART             0x0809dded    0x1c  Code  Gb  hm_dma.o [1]
DcFrame                 0x20012498    0x24  Data  Lc  dll_drx.o [3]
DcMsg                   0x20012438    0x60  Data  Lc  dll_drx.o [3]
Delay_loop_val          0x20008560     0x4  Data  Lc  dll_spc4.o [3]
DeviceCode              0x20010fc4     0x8  Data  Lc  tmp_hi.o [3]
DllRcvExit              0x080b8f8f    0x72  Code  Gb  dll_drx.o [3]
DllRcvInit              0x080b8f2d    0x62  Code  Gb  dll_drx.o [3]
Dll_estat               0x2000a2ac    0x28  Data  Gb  dll_bas.o [3]
Dll_qstat               0x2000a288    0x24  Data  Gb  dll_bas.o [3]
DownloadPrepare         0x0809c485    0x12  Code  Lc  mn_fwdl.o [1]
EXTI_ClearITPendingBit  0x0809c26d     0x2  Code  Gb  stm32f10x_exti.o [1]
EXTI_Init               0x0809c205    0x68  Code  Gb  stm32f10x_exti.o [1]
Ec1Idx                  0x20012420     0x1  Data  Gb  dll_drx.o [3]
ErrorCounter_Restart    0x20001a74     0x4  Data  Lc  hw_i2c.o [1]
ErrorCounter_StartRead  0x20001a54     0x4  Data  Lc  hw_i2c.o [1]
ErrorCounter_StartReadRetry
                        0x20001a68     0x4  Data  Lc  hw_i2c.o [1]
ErrorCounter_StartWrite
                        0x20001a58     0x4  Data  Lc  hw_i2c.o [1]
ErrorCounter_StartWriteRetry
                        0x20001a70     0x4  Data  Lc  hw_i2c.o [1]
ErrorCounter_StopRead   0x20001a5c     0x4  Data  Lc  hw_i2c.o [1]
ErrorCounter_StopReadRetry
                        0x20001a64     0x4  Data  Lc  hw_i2c.o [1]
ErrorCounter_StopWrite  0x20001a60     0x4  Data  Lc  hw_i2c.o [1]
ErrorCounter_StopWriteRetry
                        0x20001a6c     0x4  Data  Lc  hw_i2c.o [1]
Execute_AIFB            0x080a3fef   0x2ea  Code  Gb  ffbl_ai.o [1]
Execute_AOFB            0x080a4e61   0x75e  Code  Gb  ffbl_ao.o [1]
Execute_ARFB            0x080a7289   0x31c  Code  Gb  ffbl_ar.o [1]
Execute_CSFB            0x080abf27   0x292  Code  Gb  ffbl_cs.o [1]
Execute_DIFB            0x080a60c7   0x2c0  Code  Gb  ffbl_di.o [1]
Execute_DOFB            0x080a67e7   0x5a4  Code  Gb  ffbl_do.o [1]
Execute_ISFB            0x080a7f21   0x12c  Code  Gb  ffbl_is.o [1]
Execute_MAIFB           0x080ac7ff    0xde  Code  Gb  ffbl_mai.o [1]
Execute_OSFB            0x080a874d   0x12c  Code  Gb  ffbl_os.o [1]
Execute_PIDFB           0x080a99ed   0xb54  Code  Gb  ffbl_pid.o [1]
Execute_PTB             0x080abb3b    0x3c  Code  Gb  mnptbexec.o [1]
Execute_PTB_Alerts      0x0809f237    0x66  Code  Gb  appl_alert.o [1]
ExpDataLen              0x20012426     0x2  Data  Lc  dll_drx.o [3]
F1GapTime               0x2000a278     0x1  Data  Gb  dll_bas.o [3]
FLASH_Wait              0x0809de75    0x26  Code  Lc  stm_flash.o [1]
FRAM_Address            0x08097c75    0x56  Code  Lc  hw_i2c.o [1]
FRAM_ReadOperation      0x20001a50     0x1  Data  Lc  hw_i2c.o [1]
FSMC_NORSRAMCmd         0x0809c27d    0x14  Code  Gb  stm32f10x_fsmc.o [1]
FStateData              0x20001128    0x10  Data  Lc  mn_fstate.o [1]
FState_Ranges           0x0809ff14    0x10  Data  Lc  mn_fstate.o [1]
FbcTimeId               0x20012aba     0x1  Data  Gb  dll_bas.o [3]
FbcTimePar              0x2000ae58    0x10  Data  Gb  dll_bas.o [3]
FbcTimeVal              0x20012abb     0x1  Data  Gb  dll_bas.o [3]
Fbc_wd_time             0x20008564     0x4  Data  Lc  dll_spc4.o [3]
FdAlarmBits             0x20001044    0x14  Data  Lc  ffbl_fd.o [1]
FdAlarmSrc              0x20001000    0x44  Data  Lc  ffbl_fd.o [1]
FindNodeIdx             0x080bc663    0xcc  Code  Lc  dll_list.o [3]
FirmwareLoad            0x0809c66b   0x132  Code  Lc  mn_fwdl.o [1]
GPIO_DeInit             0x0809c051    0x9a  Code  Gb  stm32f10x_gpio.o [1]
GPIO_EXTILineConfig     0x0809c1c1    0x24  Code  Gb  stm32f10x_gpio.o [1]
GPIO_Init               0x0809c0eb    0xbe  Code  Gb  stm32f10x_gpio.o [1]
GPIO_ResetBits          0x0809c1bd     0x4  Code  Gb  stm32f10x_gpio.o [1]
GPIO_SetBits            0x0809c1b9     0x4  Code  Gb  stm32f10x_gpio.o [1]
GPIO_StructInit         0x0809c1a9    0x10  Code  Gb  stm32f10x_gpio.o [1]
Gap_time_value          0x20008544     0x2  Data  Lc  dll_spc4.o [3]
Gap_time_value_rx       0x2000854c     0x2  Data  Lc  dll_spc4.o [3]
Gap_time_value_tx       0x2000854a     0x2  Data  Lc  dll_spc4.o [3]
GenPtList               0x080bbf39    0xfa  Code  Lc  dll_list.o [3]
GetAlert_AirSuppy       0x0809f807     0x8  Code  Lc  mndoswff.o [1]
GetAlert_PositionHI     0x0809f817     0x8  Code  Lc  mndoswff.o [1]
GetAlert_PositionLO     0x0809f81f     0x8  Code  Lc  mndoswff.o [1]
GetAlert_TravelDeviation
                        0x0809f80f     0x8  Code  Lc  mndoswff.o [1]
GetCycleCounterDiff     0x080a03d5    0x78  Code  Lc  mn_trends.o [1]
GetPartitonBaseAddress  0x0809c539    0x10  Code  Lc  mn_fwdl.o [1]
GetPositionErrDiff      0x080a044d    0x34  Code  Lc  mn_trends.o [1]
GetTravelAccDiff        0x080a0371    0x64  Code  Lc  mn_trends.o [1]
Get_setpoint            0x080a57d1    0x44  Code  Gb  ffbl_pao.o [1]
Get_setpoint_d          0x080a6eef    0x4a  Code  Lc  ffbl_do.o [1]
HART_Command_non_block  0x0809b941    0x44  Code  Gb  hm.o [1]
HART_DMAR_handler       0x0809b6f1    0x82  Code  Gb  hm.o [1]
HART_DMAT_handler       0x0809b773    0x80  Code  Gb  hm.o [1]
HART_Exit               0x0809b8e1    0x4a  Code  Gb  hm.o [1]
HART_Init               0x0809b813    0x54  Code  Gb  hm.o [1]
HART_InitAsyncCommand   0x0809b92b    0x16  Code  Gb  hm.o [1]
HART_acyc_cmd           0x0809ad55    0x4c  Code  Gb  hm_if.o [1]
HART_connected          0x200124d3     0x1  Data  Lc  hm_if.o [1]
HART_data_base          0x08090428    0x14  Data  Gb  appl_ptb.o [1]
HART_result             0x20004d54     0x1  Data  Gb  hm_task.o [1]
HART_send_cmd0          0x0809b867    0x7a  Code  Gb  hm.o [1]
HART_set_active         0x08099411    0x22  Code  Gb  hm_task.o [1]
HART_timer_irq          0x0809bcab    0xc2  Code  Gb  hm.o [1]
HEAP$$Base              0x6000bbf0           --   Gb  - Linker created -
HEAP$$Limit             0x6001bbf0           --   Gb  - Linker created -
HMAC_HashKeyOnly        0x0809e259    0x18  Code  Gb  ffp_hmac.o [1]
HMAC_HashKeyText        0x0809e229    0x30  Code  Gb  ffp_hmac.o [1]
HMAC_PadKey             0x0809e1f1    0x38  Code  Lc  ffp_hmac.o [1]
HM_acyc                 0x20004c68    0x10  Data  Gb  hm_task.o [1]
HM_acyc_result          0x200011a0     0x1  Data  Gb  hm_task.o [1]
HM_hart_dev_id          0x20004d5c     0x4  Data  Lc  hm_task.o [1]
HM_sched                0x20004d60     0xc  Data  Lc  hm_task.o [1]
Handle_MinMax           0x0809d9e1    0x3a  Code  Gb  mnipcff.o [1]
Handle_act_alarm        0x080a48df    0x56  Code  Gb  ffbl_pai.o [1]
Handle_inact_alarm      0x080a4881    0x5e  Code  Gb  ffbl_pai.o [1]
HardReset_CPU           0x08098017    0x14  Code  Gb  hw_init.o [1]
Histogram_PosErr        0x200013e4    0x90  Data  Lc  histogram.o [1]
Hw_tim_id               0x20005194     0x8  Data  Lc  osif_tim.o [1]
I2C_ErrorCounterHandler
                        0x080979e1    0x7a  Code  Lc  hw_i2c.o [1]
I2C_MakeStartCondition  0x08097b23    0x60  Code  Lc  hw_i2c.o [1]
I2C_Stop                0x08097acb    0x58  Code  Lc  hw_i2c.o [1]
I2C_TransferIn          0x08097b83    0xf2  Code  Lc  hw_i2c.o [1]
IPCDynamicStateNumber   0x200028e1     0x1  Data  Lc  mnipcff.o [1]
IPC_Dynamic_StateMachine
                        0x0809ddcc    0x20  Data  Lc  mnipcff.o [1]
IPC_ReadsOfStateMachine
                        0x20001478     0x1  Data  Lc  appl_alert.o [1]
IWDG_MeasuredFrequency  0x200024f4     0x8  Data  Lc  stm_watchdogff.o [1]
Idle_stack              0x20004ed8   0x100  Data  Lc  osif_tsk.o [1]
Idle_tcb                0x20004fd8    0x30  Data  Lc  osif_tsk.o [1]
IncrementStaticRevision
                        0x080a1f19    0x7c  Code  Gb  mn_actuator_3.o [1]
InitNodeLists           0x080bbd7f   0x1ba  Code  Lc  dll_list.o [3]
InitialWorkingTimes     0x0809f701     0xc  Code  Gb  mn_working_times.o [1]
Initialize_cascade      0x080a5d15    0x4e  Code  Lc  ffbl_mo.o [1]
L2Buffer                0x2000acfc    0x20  Data  Gb  dll_bas.o [3]
LlOffsMask              0x080bcdc8     0x9  Data  Lc  dll_list.o [3]
LlSizeMask              0x080bcdd4     0x8  Data  Lc  dll_list.o [3]
LoadImageHeader         0x0809c5d3    0x98  Code  Lc  mn_fwdl.o [1]
LocalErrorBitMap        0x200018cc     0x4  Data  Lc  mn_errorbits.o [1]
Local_node_time         0x2000a24c     0x4  Data  Gb  dll_bas.o [3]
Lui_Simulation          0x0809d985     0x8  Code  Gb  mnipcff.o [1]
MnFaultAlarmMap         0x08092bc4   0x1aa  Data  Gb  fault2alert.o [1]
NVIC_Init               0x08097e1b    0x5c  Code  Gb  misc.o [1]
NVIC_PriorityGroupConfig
                        0x08097e11     0xa  Code  Gb  misc.o [1]
NVIC_SetVectorTable     0x08097e77     0xc  Code  Gb  misc.o [1]
NVIC_Trap               0x080ac3f3          Code  Gb  cortextrap.o [1]
NVIC_TrapC              0x080ac3c9    0x14  Code  Gb  cortextrapc.o [1]
NodeList                0x2000b658   0x230  Data  Gb  dll_bas.o [3]
NvMutex                 0x20001a88    0x10  Data  Lc  eep_if.o [1]
NvMutex_Internal        0x20001a98    0x10  Data  Lc  eep_if.o [1]
OSTaskIdleHook          0x08097989     0xc  Code  Gb  mn_flash_selftest.o [1]
OS_ChangeTask_STD       0x08095f9b   0x116  Code  Gb  OSKERN.o [7]
OS_CheckTimer           0x0809bed9    0x34  Code  Gb  OSTIME.o [7]
OS_ClearWaitObj         0x0809bd95    0x2c  Code  Gb  OS_Wait.o [7]
OS_CreateMB             0x08095aa1    0x18  Code  Gb  OSMAIL.o [7]
OS_CreateRSema          0x0809985d    0x34  Code  Gb  OSRSEM.o [7]
OS_CreateTaskEx_S       0x08095d3d    0x7c  Code  Gb  OS_CreateTaskEx.o [7]
OS_CreateTimer          0x0809bf0d    0x2e  Code  Gb  OSTIME.o [7]
OS_DeactivateP          0x0809bdc1    0x3c  Code  Gb  OS_DeactivateP.o [7]
OS_Deactivated          0x080961c1    0x26  Code  Gb  OSKERN.o [7]
OS_Delay                0x08096215    0x48  Code  Gb  OSKERN.o [7]
OS_DisableInt           0x08096463          Code  Gb  rtos.o [7]
OS_EnableInt            0x08096457          Code  Gb  rtos.o [7]
OS_Error                0x080957b3    0x20  Code  Gb  osif_tsk.o [1]
OS_Exception            0x080963a5          Code  Gb  rtos.o [7]
OS_ExtendTaskContext    0x0809625d     0x8  Code  Gb  OSKERN.o [7]
OS_GetEventsOccurred    0x08097899    0x10  Code  Gb  OSEVENGE.o [7]
OS_GetSP                0x08099265     0x4  Code  Gb  OS_StackInfo.o [7]
OS_GetSysStackBase      0x0809925d     0x4  Code  Gb  OS_StackInfo.o [7]
OS_Global               0x2000120c    0x2c  Data  Gb  OSGLOBAL.o [7]
OS_Idle                 0x080980b3     0x2  Code  Gb  hw_os.o [1]
OS_InitHW               0x08098075    0x3e  Code  Gb  hw_os.o [1]
OS_InitKern_STD         0x080961e7    0x2e  Code  Gb  OSKERN.o [7]
OS_InitMode             0x08099269    0x1c  Code  Gb  OS_InitMode.o [7]
OS_InitialSuspendCnt    0x200028e6     0x1  Data  Gb  OSGLOBAL.o [7]
OS_InsertTask           0x08096163    0x4e  Code  Gb  OSKERN.o [7]
OS_IsTask               0x0809637d    0x28  Code  Gb  OSISTASK.o [7]
OS_JLINKMEM_BufferSize  0x08090454     0x4  Data  Gb  hw_os.o [1]
OS_LeaveRegion          0x080960b1    0x38  Code  Gb  OSKERN.o [7]
OS_MakeTaskReady        0x080960e9    0x7a  Code  Gb  OSKERN.o [7]
OS_Request              0x0809990d    0x2c  Code  Gb  OSRSEMRQ.o [7]
OS_RetriggerTimer       0x0809bf3b    0x66  Code  Gb  OSTIME.o [7]
OS_Running              0x200028e5     0x1  Data  Gb  OSGLOBAL.o [7]
OS_SetPriority          0x08096339    0x44  Code  Gb  OSSETP.o [7]
OS_SetTimerPeriod       0x0809beb1    0x28  Code  Gb  OSTimeS.o [7]
OS_SignalEvent          0x08095e79    0x48  Code  Gb  OSEVENS.o [7]
OS_StartASM             0x08096413          Code  Gb  rtos.o [7]
OS_StartTask            0x08096409          Code  Gb  rtos.o [7]
OS_StartTimer           0x0809bfa1    0x62  Code  Gb  OSTIME.o [7]
OS_StopTimer            0x0809c003    0x44  Code  Gb  OSTIME.o [7]
OS_Switch               0x08096437          Code  Gb  rtos.o [7]
OS_SwitchAfterISR_CortexM3
                        0x08096445          Code  Gb  rtos.o [7]
OS_SwitchFromInt        0x0809644f          Code  Gb  rtos.o [7]
OS_TICK_Handle          0x0809a47d    0x44  Code  Gb  OS_TICK_Handle.o [7]
OS_TaskEndsUnexpectedly
                        0x08096411          Code  Gb  rtos.o [7]
OS_UnlinkTask           0x080961b1    0x10  Code  Gb  OSKERN.o [7]
OS_Unuse                0x080998d3    0x2a  Code  Gb  OSRSEM.o [7]
OS_Use                  0x08099891    0x42  Code  Gb  OSRSEM.o [7]
OS_WaitEvent            0x08095e31    0x48  Code  Gb  OSEVENW.o [7]
OS_WaitSingleEvent      0x080978a9    0x4c  Code  Gb  OSEVENWS.o [7]
OS_pRSema               0x200025a0     0x4  Data  Gb  OSGLOBAL.o [7]
OS_pTLS                 0x200025a8     0x4  Data  Gb  OSGLOBAL.o [7]
OS_pTickHook            0x200025a4     0x4  Data  Gb  OSGLOBAL.o [7]
OS_pfOnTerminate        0x200025ac     0x4  Data  Gb  OSTERM.o [7]
OnReadPositionHistogram
                        0x080a02c9    0xa0  Code  Gb  histogram.o [1]
OnWritePosErrHistogram  0x080a01f5    0x7a  Code  Gb  histogram.o [1]
OnWritePositionHistogram
                        0x080a026f    0x42  Code  Gb  histogram.o [1]
Osif_timer              0x20005008   0x18c  Data  Lc  osif_tim.o [1]
Out_Limits_Handling     0x080ac26d    0x3e  Code  Lc  ffbl_cs.o [1]
PTB_ConvertWorkPos_InTravelUnits
                        0x0809cd6d    0x26  Code  Gb  appl_ptb.o [1]
PTB_WorkingPositionConversion
                        0x200018d8     0xc  Data  Lc  appl_ptb.o [1]
PendSV_Handler          0x080963a5          Code  Gb  rtos.o [7]
PosCharactTab           0x080a0eb4    0x18  Data  Lc  mncharactff.o [1]
Position_Histogram_internal_array
                        0x20001064    0x30  Data  Lc  histogram.o [1]
ProcessDownloadByte     0x0809c79d    0xfc  Code  Lc  mn_fwdl.o [1]
PtPnOverhead            0x2000d0ac     0x2  Data  Lc  dll_las.o [3]
RCC_AHBPeriphClockCmd   0x08099d6f    0x12  Code  Gb  stm32f10x_rcc.o [1]
RCC_APB1PeriphClockCmd  0x08099d93    0x12  Code  Gb  stm32f10x_rcc.o [1]
RCC_APB2PeriphClockCmd  0x08099d81    0x12  Code  Gb  stm32f10x_rcc.o [1]
RCC_APB2PeriphResetCmd  0x08099da5    0x12  Code  Gb  stm32f10x_rcc.o [1]
RCC_ClockFreqs          0x20001a28    0x14  Data  Gb  hw_init.o [1]
RCC_GetClocksFreq       0x08099ced    0x82  Code  Gb  stm32f10x_rcc.o [1]
RCC_HCLKConfig          0x08099cc5     0xa  Code  Gb  stm32f10x_rcc.o [1]
RCC_PCLK1Config         0x08099ccf     0x8  Code  Gb  stm32f10x_rcc.o [1]
RCC_PCLK2Config         0x08099cdd     0x8  Code  Gb  stm32f10x_rcc.o [1]
RESTORE_INTERRUPTS      0x08095595    0x16  Code  Gb  osif_tsk.o [1]
RQ_rcv_time_offset      0x20012aa0     0x2  Data  Gb  dll_bas.o [3]
RcvAddr                 0x080b9381   0x156  Code  Lc  dll_drx.o [3]
RcvDt1Spdu              0x080b9bd1   0x172  Code  Lc  dll_drx.o [3]
RcvDt1SpduAddr          0x080b9a7d    0x84  Code  Lc  dll_drx.o [3]
RcvEnd                  0x080b928d    0x6e  Code  Lc  dll_drx.o [3]
RcvErrEnd               0x080b9d91    0x4e  Code  Gb  dll_drx.o [3]
RcvFc                   0x080b9001   0x28c  Code  Lc  dll_drx.o [3]
RcvL2Data               0x080b9b19    0x84  Code  Lc  dll_drx.o [3]
RcvNode                 0x080b92fd    0x82  Code  Lc  dll_drx.o [3]
RcvUsrData              0x080b9d51    0x32  Code  Lc  dll_drx.o [3]
Rcv_idx                 0x20012a90     0x2  Data  Gb  dll_bas.o [3]
Rcv_len                 0x20012a92     0x2  Data  Gb  dll_bas.o [3]
ReInitCounter           0x20001a4c     0x4  Data  Lc  hw_i2c.o [1]
ReadAPPMode             0x080a1c79    0x1c  Code  Gb  app_mode.o [1]
ReadActuator3           0x080a1f95    0x62  Code  Gb  mn_actuator_3.o [1]
ReadPressureRange       0x080a1ca9    0x5a  Code  Gb  pressure_range.o [1]
ReadUIAccessControl     0x080a2061    0x38  Code  Gb  mn_ui_access_control.o [1]
ReadUILanguage          0x080a1c41    0x20  Code  Gb  ui_language.o [1]
Read_array              0x080b11bd    0x78  Code  Lc  fbs_run.o [5]
Read_handler            0x080b617b    0xb6  Code  Gb  fbs_rw.o [5]
Read_handler_AIFB       0x080a3c91    0x10  Code  Gb  ffbl_ai.o [1]
Read_handler_AOFB       0x080a4b73     0x4  Code  Gb  ffbl_ao.o [1]
Read_handler_ARFB       0x080a70df     0x4  Code  Gb  ffbl_ar.o [1]
Read_handler_CSFB       0x080abc65     0x4  Code  Gb  ffbl_cs.o [1]
Read_handler_DIFB       0x080a5ea5    0x10  Code  Gb  ffbl_di.o [1]
Read_handler_DOFB       0x080a65bd     0x4  Code  Gb  ffbl_do.o [1]
Read_handler_ISFB       0x080a7d81     0x4  Code  Gb  ffbl_is.o [1]
Read_handler_MAIFB      0x080ac65f     0x4  Code  Gb  ffbl_mai.o [1]
Read_handler_OSFB       0x080a84d7     0x4  Code  Gb  ffbl_os.o [1]
Read_handler_PIDFB      0x080a923b    0x10  Code  Gb  ffbl_pid.o [1]
Read_handler_PTB        0x0809cfad   0x28a  Code  Gb  appl_ptb.o [1]
Read_handler_RESB       0x0809b02f    0x38  Code  Gb  ffbl_res.o [1]
Read_object             0x080b1111    0xac  Code  Lc  fbs_run.o [5]
Read_record             0x080b13f1   0x132  Code  Lc  fbs_run.o [5]
Region$$Table$$Base     0x080c53f8           --   Gb  - Linker created -
Region$$Table$$Limit    0x080c5430           --   Gb  - Linker created -
Remote_WP_Jumper        0x0809d97d     0x8  Code  Gb  mnipcff.o [1]
Remote_WP_Jumper_State  0x20001139     0x1  Data  Lc  mnipcff.o [1]
ResetPA_5               0x08098065     0x8  Code  Gb  hw_init.o [1]
Reset_AOFB              0x080a56cd    0x26  Code  Lc  ffbl_ao.o [1]
Reset_CPU               0x08097ff9     0x2  Code  Gb  hw_init.o [1]
Reset_DOFB              0x080a6ed3    0x1c  Code  Lc  ffbl_do.o [1]
Reset_PIDFB             0x080aa6ab    0x26  Code  Lc  ffbl_pid.o [1]
Reset_Watchdog          0x080ac955    0x5c  Code  Gb  hw_init.o [1]
Return_in_manual_mode   0x080a5d63    0x3e  Code  Lc  ffbl_mo.o [1]
RxFc                    0x20012ab3     0x1  Data  Gb  dll_bas.o [3]
Rx_decode_in_progress   0x20012aae     0x1  Data  Gb  dll_bas.o [3]
SPC_rcv_buffer          0x2000a250     0x4  Data  Gb  dll_bas.o [3]
SR_FlashResult          0x200024e8     0x4  Data  Lc  stm_flash.o [1]
SaveCalibrationType     0x080a1017    0x54  Code  Lc  mnfindstopsff.o [1]
Sema_init               0x20004ed4     0x1  Data  Gb  osif_tsk.o [1]
Send_trend_info         0x080b10b7    0x5a  Code  Lc  fbs_run.o [5]
SetActive               0x0809c4ff    0x3a  Code  Lc  mn_fwdl.o [1]
SetPA_5                 0x0809802b     0x4  Code  Gb  hw_init.o [1]
SetPartitionState       0x0809c5b5    0x1e  Code  Lc  mn_fwdl.o [1]
SetResetFlag            0x0809f6c3    0x3e  Code  Gb  mn_working_times.o [1]
Set_good_nc_substatus   0x080a493d    0x7a  Code  Gb  ffbl_pai.o [1]
Set_shedding_mode       0x080a5d03    0x12  Code  Lc  ffbl_mo.o [1]
SndDc                   0x080b986b    0xc8  Code  Lc  dll_drx.o [3]
Sort_inputs             0x080ac2ab    0x98  Code  Lc  ffbl_cs.o [1]
Spc_tx_buffer           0x20008550     0x4  Data  Lc  dll_spc4.o [3]
Spc_tx_len              0x20008554     0x4  Data  Lc  dll_spc4.o [3]
Start_AIFB              0x080a3bad    0x7e  Code  Gb  ffbl_ai.o [1]
Start_AOFB              0x080a49c5    0x78  Code  Gb  ffbl_ao.o [1]
Start_ARFB              0x080a7035    0x52  Code  Gb  ffbl_ar.o [1]
Start_CSFB              0x080abbcd    0x3c  Code  Gb  ffbl_cs.o [1]
Start_DIFB              0x080a5dad    0x74  Code  Gb  ffbl_di.o [1]
Start_DOFB              0x080a6489    0x54  Code  Gb  ffbl_do.o [1]
Start_ISFB              0x080a7cf1    0x3c  Code  Gb  ffbl_is.o [1]
Start_MAIFB             0x080ac59f    0x50  Code  Gb  ffbl_mai.o [1]
Start_OSFB              0x080a83f9    0x6e  Code  Gb  ffbl_os.o [1]
Start_PIDFB             0x080a9025   0x182  Code  Gb  ffbl_pid.o [1]
Start_PTB               0x0809ce99    0x8a  Code  Gb  appl_ptb.o [1]
Start_RESB              0x0809afe5    0x4a  Code  Gb  ffbl_res.o [1]
Stop_AIFB               0x080a3c2b    0x66  Code  Gb  ffbl_ai.o [1]
Stop_AOFB               0x080a4a3d   0x136  Code  Gb  ffbl_ao.o [1]
Stop_ARFB               0x080a7087    0x58  Code  Gb  ffbl_ar.o [1]
Stop_CSFB               0x080abc09    0x5c  Code  Gb  ffbl_cs.o [1]
Stop_DIFB               0x080a5e21    0x84  Code  Gb  ffbl_di.o [1]
Stop_DOFB               0x080a64dd    0xe0  Code  Gb  ffbl_do.o [1]
Stop_ISFB               0x080a7d2d    0x54  Code  Gb  ffbl_is.o [1]
Stop_MAIFB              0x080ac5ef    0x70  Code  Gb  ffbl_mai.o [1]
Stop_OSFB               0x080a8467    0x70  Code  Gb  ffbl_os.o [1]
Stop_PIDFB              0x080a91bd    0x7e  Code  Gb  ffbl_pid.o [1]
StuffAlertEntry         0x0809f38b    0x60  Code  Lc  appl_alert.o [1]
SyncCycleDeadBand       0x080a259d    0xa0  Code  Gb  mn_cycle_counter_alert.o [1]
SyncTravelDeadBand      0x080a263d    0xa0  Code  Gb  mn_travel_accumulation.o [1]
SysTick_Handler         0x080980b5    0x2e  Code  Gb  hw_os.o [1]
TB_Get_WorkingPos_InTravelUnits
                        0x0809cd93     0x6  Code  Gb  appl_ptb.o [1]
TIM10_handler           0x0809bdfd    0x4a  Code  Gb  hw_tim.o [1]
TIM6_int_handler        0x080ac3b7     0x2  Code  Lc  hw_intr.o [1]
TIM_ARRPreloadConfig    0x0809c361    0x14  Code  Gb  stm32f10x_tim.o [1]
TIM_ClearITPendingBit   0x0809c3a5     0x2  Code  Gb  stm32f10x_tim.o [1]
TIM_Cmd                 0x0809c33d    0x14  Code  Gb  stm32f10x_tim.o [1]
TIM_GetPrescaler        0x0809c3a1     0x4  Code  Gb  stm32f10x_tim.o [1]
TIM_ITConfig            0x0809c351    0x10  Code  Gb  stm32f10x_tim.o [1]
TIM_SetAutoreload       0x0809c39d     0x4  Code  Gb  stm32f10x_tim.o [1]
TIM_TimeBaseInit        0x0809c29d    0x8e  Code  Gb  stm32f10x_tim.o [1]
TIM_TimeBaseStructInit  0x0809c32b    0x12  Code  Gb  stm32f10x_tim.o [1]
TIM_UpdateDisableConfig
                        0x0809c375    0x14  Code  Gb  stm32f10x_tim.o [1]
TIM_UpdateRequestConfig
                        0x0809c389    0x14  Code  Gb  stm32f10x_tim.o [1]
Task                    0x20001aa8    0x84  Data  Lc  osif_tsk.o [1]
Task_cfg                0x080904bc    0xdc  Data  Gb  osif_cfg.o [1]
TbChannelFunc           0x080abb78    0x54  Data  Lc  mnptbexec.o [1]
TelDsc                  0x2000a620     0x4  Data  Gb  dll_bas.o [3]
TelDsc0011              0x080930ba     0x3  Data  Lc  dll_drx.o [3]
TelDsc00XX              0x080930c0    0x42  Data  Lc  dll_drx.o [3]
TelDscXX00              0x0809307e    0x18  Data  Lc  dll_drx.o [3]
TelDscXX01              0x08093096     0xc  Data  Lc  dll_drx.o [3]
TelDscXX10              0x080930a2    0x18  Data  Lc  dll_drx.o [3]
TelDscpp11              0x080930bd     0x3  Data  Lc  dll_drx.o [3]
TelDscppXX              0x08093102    0x42  Data  Lc  dll_drx.o [3]
Tim_init                0x20004ed5     0x1  Data  Gb  osif_tsk.o [1]
Timer_idx               0x2000519c     0x4  Data  Lc  osif_tim.o [1]
TravelAlertsData        0x20001480    0x10  Data  Lc  appl_alert.o [1]
USART_Cmd               0x0809b6ad    0x14  Code  Gb  stm32f10x_usart.o [1]
USART_ITConfig          0x0809b6c1    0x30  Code  Gb  stm32f10x_usart.o [1]
USART_Init              0x0809b611    0x96  Code  Gb  stm32f10x_usart.o [1]
UfcVersion              0x20012ab0     0x1  Data  Gb  dll_bas.o [3]
UpdLlChange             0x080bc57d    0xe6  Code  Lc  dll_list.o [3]
UpdLlDetail             0x080bc72f   0x184  Code  Lc  dll_list.o [3]
UpdLlDetailSnd          0x080bcc91   0x112  Code  Lc  dll_list.o [3]
UpdateHistogram         0x0809ffbf   0x236  Code  Gb  histogram.o [1]
UpdateTrendCurrent      0x080a04c1    0xd6  Code  Lc  mn_trends.o [1]
UpdateTrends            0x080a0597    0xf8  Code  Gb  mn_trends.o [1]
UpdateWorkingTimes      0x0809f70d    0xb4  Code  Gb  mn_working_times.o [1]
UpdateXDErrorPos        0x080a2379    0x90  Code  Gb  mn_xd_errors.o [1]
UpdateXDErrorPressure   0x080a2409    0x2e  Code  Gb  mn_xd_errors.o [1]
UpdateXDErrorTemperature
                        0x080a2437    0x22  Code  Gb  mn_xd_errors.o [1]
Update_FIND_STOPS_Error_bit
                        0x080a2459    0x1c  Code  Gb  mn_xd_errors.o [1]
Update_alarm_sum_AIFB   0x080a4549   0x106  Code  Lc  ffbl_ai.o [1]
Update_alarm_sum_DI     0x080a63c5    0x76  Code  Lc  ffbl_di.o [1]
Update_alarm_sum_PIDFB  0x080aa7ad   0x184  Code  Lc  ffbl_pid.o [1]
Update_alarm_sum_RESB   0x0809b459    0x88  Code  Lc  ffbl_res.o [1]
Update_block_alarm_AIFB
                        0x080a4517    0x32  Code  Lc  ffbl_ai.o [1]
Update_block_alarm_AOFB
                        0x080a56f3    0x2e  Code  Lc  ffbl_ao.o [1]
Update_block_alarm_DIFB
                        0x080a6393    0x32  Code  Lc  ffbl_di.o [1]
Update_block_alarm_DOFB
                        0x080a6ea5    0x2e  Code  Lc  ffbl_do.o [1]
Update_fault_state      0x080a5af1    0x90  Code  Lc  ffbl_mo.o [1]
Update_lim_alarms_AIFB  0x080a42db   0x1b0  Code  Lc  ffbl_ai.o [1]
VerString               0x08092d6e    0x1c  Data  Gb  mncbdefs.o [1]
WDInstrum               0x20001a3c     0xc  Data  Gb  hw_init.o [1]
WDTInstrum              0x2000205c    0x10  Data  Gb  osif_tsk.o [1]
WT_expired              0x20012abf     0x1  Data  Gb  dll_bas.o [3]
WT_running              0x20012aaf     0x1  Data  Gb  dll_bas.o [3]
Watch_time_reg          0x20012a94     0x2  Data  Gb  dll_bas.o [3]
Watch_time_val          0x20012a96     0x2  Data  Gb  dll_bas.o [3]
WriteAPPMode            0x080a1c95    0x14  Code  Gb  app_mode.o [1]
WriteActuator3          0x080a1ff7    0x6a  Code  Gb  mn_actuator_3.o [1]
WriteBlockHeader        0x080a255d    0x3e  Code  Gb  mn_block_header.o [1]
WriteClearStatus        0x080a26dd    0x24  Code  Gb  mn_clear_status.o [1]
WriteGrantDeny          0x080ab7e7    0x38  Code  Gb  mn_grant_deny.o [1]
WriteIPDriveCurrentAlert
                        0x080a34cd    0x94  Code  Gb  mn_ip_drive_current_alert.o [1]
WriteNearClosedAlert    0x080a30ed   0x10c  Code  Gb  mn_near_closed_alert.o [1]
WritePressureRange      0x080a1d03    0x40  Code  Gb  pressure_range.o [1]
WritePressureRangeCheck
                        0x080a1e55    0x80  Code  Gb  pressure_range.o [1]
WriteTemperatureAlert   0x080a3561    0x70  Code  Gb  mn_temperature_alert.o [1]
WriteToFlash            0x0809c561    0x54  Code  Lc  mn_fwdl.o [1]
WriteTravel             0x080a2701   0x258  Code  Gb  mn_travel_units.o [1]
WriteUIAccessControl    0x080a2099    0x86  Code  Gb  mn_ui_access_control.o [1]
WriteUILanguage         0x080a1c61    0x18  Code  Gb  ui_language.o [1]
WriteUiCustomConfiguration
                        0x080a2d99    0x2a  Code  Gb  lui_ipc_variables.o [1]
Write_array             0x080b19b3   0x144  Code  Lc  fbs_run.o [5]
Write_fb_block          0x080b1c5d    0x1a  Code  Lc  fbs_run.o [5]
Write_fb_link           0x080b1c79   0x460  Code  Lc  fbs_run.o [5]
Write_fb_trend          0x080b20dd   0x176  Code  Lc  fbs_run.o [5]
Write_handler           0x080b6231    0xb8  Code  Gb  fbs_rw.o [5]
Write_handler_AIFB      0x080a3ca1   0x348  Code  Gb  ffbl_ai.o [1]
Write_handler_AOFB      0x080a4b79   0x2e2  Code  Gb  ffbl_ao.o [1]
Write_handler_ARFB      0x080a70e3   0x1a0  Code  Gb  ffbl_ar.o [1]
Write_handler_CSFB      0x080abc69   0x2b8  Code  Gb  ffbl_cs.o [1]
Write_handler_DIFB      0x080a5eb5   0x20c  Code  Gb  ffbl_di.o [1]
Write_handler_DOFB      0x080a65c1   0x220  Code  Gb  ffbl_do.o [1]
Write_handler_ISFB      0x080a7d85   0x196  Code  Gb  ffbl_is.o [1]
Write_handler_MAIFB     0x080ac663   0x196  Code  Gb  ffbl_mai.o [1]
Write_handler_OSFB      0x080a84dd   0x26a  Code  Gb  ffbl_os.o [1]
Write_handler_PIDFB     0x080a924d   0x79a  Code  Gb  ffbl_pid.o [1]
Write_handler_PTB       0x0809d239   0x45c  Code  Gb  appl_ptb.o [1]
Write_handler_RESB      0x0809b067   0x1da  Code  Gb  ffbl_res.o [1]
Write_object            0x080b17cb   0x126  Code  Lc  fbs_run.o [5]
Write_record            0x080b1b99    0xbe  Code  Lc  fbs_run.o [5]
Write_simple_var        0x080b18f1    0xc2  Code  Lc  fbs_run.o [5]
_CheckDelays            0x08095f25    0x76  Code  Lc  OSKERN.o [7]
_OS_DoRR                0x08095ec1    0x64  Code  Lc  OSKERN.o [7]
_OS_RSema_OnTerminate   0x08099821    0x3c  Code  Lc  OSRSEM.o [7]
_Rand_idx               0x20001240     0x4  Data  Lc  rand.o [4]
_Rand_rv                0x20001244    0x80  Data  Lc  rand.o [4]
_Randinit               0x20001238     0x1  Data  Gb  rand.o [4]
_Randseed               0x2000123c     0x4  Data  Gb  rand.o [4]
__DLIB_PERTHREAD$$Base  0x20001238           --   Gb  - Linker created -
__DLIB_PERTHREAD$$Limit
                        0x200012c8           --   Gb  - Linker created -
__aeabi_cdcmpeq         0x08093a69          Code  Gb  DblCmpEq.o [6]
__aeabi_cdcmple         0x08093ae5          Code  Gb  DblCmpLe.o [6]
__aeabi_cdrcmple        0x08093a95          Code  Gb  DblCmpGe.o [6]
__aeabi_cfcmpeq         0x08094dc5          Code  Gb  FltCmpEq.o [6]
__aeabi_cfcmple         0x08094da1          Code  Gb  FltCmpLe.o [6]
__aeabi_cfrcmple        0x080a3a59          Code  Gb  FltCmpGe.o [6]
__aeabi_d2f             0x08094d11          Code  Gb  DblToFlt.o [6]
__aeabi_d2iz            0x08093dcd          Code  Gb  DblToI32.o [6]
__aeabi_dadd            0x08093ce5          Code  Gb  DblAdd.o [6]
__aeabi_ddiv            0x08093fc9          Code  Gb  DblDiv.o [6]
__aeabi_dmul            0x08093b41          Code  Gb  DblMul.o [6]
__aeabi_dsub            0x08093e49          Code  Gb  DblSub.o [6]
__aeabi_errno_addr      0x08093a89     0x6  Code  Gb  errno.o [4]
__aeabi_f2d             0x08094cc1          Code  Gb  FltToDbl.o [6]
__aeabi_f2iz            0x080a3ae1          Code  Gb  FltToS32.o [6]
__aeabi_f2uiz           0x080a3abd          Code  Gb  FltToU32.o [6]
__aeabi_fadd            0x08094fb5          Code  Gb  FltAdd.o [6]
__aeabi_fdiv            0x08094de1          Code  Gb  FltDiv.o [6]
__aeabi_fmul            0x08094edd          Code  Gb  FltMul.o [6]
__aeabi_fsub            0x08094bd9          Code  Gb  FltSub.o [6]
__aeabi_i2d             0x08093e19          Code  Gb  I32ToDbl.o [6]
__aeabi_i2f             0x080a39a5          Code  Gb  I32ToFlt.o [6]
__aeabi_llsr            0x080a3a39          Code  Gb  U64Shr.o [8]
__aeabi_memclr          0x0809c9a5          Code  Gb  ABImemclr.o [8]
__aeabi_memclr4         0x080991ed          Code  Gb  ABImemclr4.o [8]
__aeabi_memcpy          0x08095db9          Code  Gb  ABImemcpy.o [8]
__aeabi_memcpy4         0x08095dd9          Code  Gb  ABImemcpy.o [8]
__aeabi_memcpy8         0x08095dd9          Code  Gb  ABImemcpy.o [8]
__aeabi_memset          0x080991f5          Code  Gb  ABImemset.o [8]
__aeabi_memset4         0x0809a735          Code  Gb  ABImemset48.o [8]
__aeabi_memset8         0x0809a735          Code  Gb  ABImemset48.o [8]
__aeabi_ui2d            0x08093e2d          Code  Gb  I32ToDbl.o [6]
__aeabi_ui2f            0x080a39b9          Code  Gb  I32ToFlt.o [6]
__cif_code__$$Base      0x080ad3fc           --   Gb  - Linker created -
__cif_code__$$Limit     0x080adcb0           --   Gb  - Linker created -
__cmain                 0x080ac551          Code  Gb  cmain.o [8]
__const_data__$$Base    0x0808093c           --   Gb  - Linker created -
__const_data__$$Limit   0x08093144           --   Gb  - Linker created -
__data_GetMemChunk      0x080992a1    0x2c  Code  Gb  xgetmemchunk.o [4]
__ddl_code__$$Base      0x080b6640           --   Gb  - Linker created -
__ddl_code__$$Limit     0x080bd13c           --   Gb  - Linker created -
__default_interrupt_handler
                        0x080ac345    0x2c  Code  Gb  hw_intr.o [1]
__exit                  0x0809b605          Code  Gb  XXexit.o [8]
__fal_code__$$Base      0x080bd13c           --   Gb  - Linker created -
__fal_code__$$Limit     0x080c0798           --   Gb  - Linker created -
__fbs_code__$$Base      0x080adcb0           --   Gb  - Linker created -
__fbs_code__$$Limit     0x080b6640           --   Gb  - Linker created -
__fmg_code__$$Base      0x080c0798           --   Gb  - Linker created -
__fmg_code__$$Limit     0x080c512e           --   Gb  - Linker created -
__general_code__$$Base  0x08093148           --   Gb  - Linker created -
__general_code__$$Limit
                        0x080ac954           --   Gb  - Linker created -
__iar_Dint              0x080939eb    0x7e  Code  Gb  xdint.o [6]
__iar_Dnorm             0x080939a9    0x42  Code  Gb  xdnorm.o [6]
__iar_Dscale            0x080945a9   0x10c  Code  Gb  xdscale.o [6]
__iar_Dtest             0x08094575    0x32  Code  Gb  xdtest.o [6]
__iar_Errno             0x200012c4     0x4  Data  Gb  errno.o [4]
__iar_Exp               0x080942b9   0x29e  Code  Gb  xexp.o [6]
__iar_FDtest            0x080a3b59    0x2a  Code  Gb  xfdtest.o [6]
__iar_Logpoly           0x08094211    0x6e  Code  Gb  xlog.o [6]
__iar_Memset            0x080991f5          Code  Gb  ABImemset.o [8]
__iar_Memset4_word      0x0809a73d          Code  Gb  ABImemset48.o [8]
__iar_Memset8_word      0x0809a73d          Code  Gb  ABImemset48.o [8]
__iar_Memset_word       0x080991fd          Code  Gb  ABImemset.o [8]
__iar_copy_init3        0x08093b13    0x2e  Code  Gb  copy_init3.o [8]
__iar_d2uiz             0x08093df9          Code  Gb  DblToI32.o [6]
__iar_dadd              0x08093cf9          Code  Gb  DblAdd.o [6]
__iar_data_init3        0x080ac569    0x28  Code  Gb  data_init.o [8]
__iar_dlfree            0x080973b3   0x4de  Code  Gb  dlmalloc.o [4]
__iar_dlib_perthread_access
                        0x0809455d    0x18  Code  Gb  xtls.o [7]
__iar_dlmalloc          0x08097117   0x29c  Code  Gb  dlmalloc.o [4]
__iar_dsub              0x08093e5d          Code  Gb  DblSub.o [6]
__iar_dsubStart         0x08093e6f          Code  Gb  DblSub.o [6]
__iar_edom              0x080a49b9          Code  Gb  iarEdom.o [8]
__iar_fadd              0x08094fc5          Code  Gb  FltAdd.o [6]
__iar_floorf            0x080a3b25          Code  Gb  floorf.o [6]
__iar_fsub              0x08094be9          Code  Gb  FltSub.o [6]
__iar_fsubStart         0x08094bf9          Code  Gb  FltSub.o [6]
__iar_program_start     0x080ac941          Code  Gb  cstartup_M.o [8]
__iar_sqrt              0x080a4791          Code  Gb  sqrt.o [6]
__iar_strcmp            0x080ac40d          Code  Gb  strcmp.o [8]
__iar_ui2d              0x08093e31          Code  Gb  I32ToDbl.o [6]
__iar_ui2f              0x080a39bd          Code  Gb  I32ToFlt.o [6]
__iar_zero_init3        0x08093ac3    0x22  Code  Gb  zero_init3.o [8]
__intvec_start__ {Abs}  0x08080800           --   Gb  command line/config [2]
__low_level_init        0x08097ead   0x10a  Code  Gb  hw_init.o [1]
__mn_checksum__$$Base   0x080c5430           --   Gb  - Linker created -
__mn_checksum__$$Limit  0x080c5436           --   Gb  - Linker created -
__region_INT_ROM_BANK0_end__ {Abs}
                        0x080f7777           --   Gb  command line/config [2]
__region_INT_ROM_BANK0_start__ {Abs}
                        0x08080800           --   Gb  command line/config [2]
__size_cstack__ {Abs}   0x00001000           --   Gb  command line/config [2]
__vector_table          0x08080800   0x13c  Data  Gb  hw_intr.o [1]
_accessory              0x0808ea70    0x9a  Data  Lc  spec_ds.o [1]
_active_control_set     0x0808d730    0x9a  Data  Lc  spec_ds.o [1]
_actuator_1             0x0808e3d2    0x9a  Data  Lc  spec_ds.o [1]
_actuator_2             0x0808e46c    0x9a  Data  Lc  spec_ds.o [1]
_actuator_3             0x0808e506    0x9a  Data  Lc  spec_ds.o [1]
_actuator_info          0x0808e5a0    0x9a  Data  Lc  spec_ds.o [1]
_alert_action           0x0808e0d0    0x9a  Data  Lc  spec_ds.o [1]
_alert_counters         0x0808e29e    0x9a  Data  Lc  spec_ds.o [1]
_alert_log              0x0808ef40    0x9a  Data  Lc  spec_ds.o [1]
_alert_state            0x0808e204    0x9a  Data  Lc  spec_ds.o [1]
_autotune               0x0808df02    0x9a  Data  Lc  spec_ds.o [1]
_backup_control_set     0x0808eea6    0x9a  Data  Lc  spec_ds.o [1]
_booster                0x0808e9d6    0x9a  Data  Lc  spec_ds.o [1]
_call_main              0x080ac55d          Code  Gb  cmain.o [8]
_char_type              0x0808d4c8    0x9a  Data  Lc  spec_ds.o [1]
_check_process          0x0808df9c    0x9a  Data  Lc  spec_ds.o [1]
_complete_status        0x0808f242    0x9a  Data  Lc  spec_ds.o [1]
_control_set            0x0808d696    0x9a  Data  Lc  spec_ds.o [1]
_cycle_counter_alert    0x0808da32    0x9a  Data  Lc  spec_ds.o [1]
_deviation_alert        0x0808d7ca    0x9a  Data  Lc  spec_ds.o [1]
_diagnostic_configuration
                        0x0808efda    0x9a  Data  Lc  spec_ds.o [1]
_err_trend              0x0808dd34    0x9a  Data  Lc  spec_ds.o [1]
_exit                   0x080ac595          Code  Gb  cexit.o [8]
_failed_state           0x0808e16a    0x9a  Data  Lc  spec_ds.o [1]
_final_value_cutoff_hi  0x0808f10e    0x9a  Data  Lc  spec_ds.o [1]
_final_value_cutoff_lo  0x0808f1a8    0x9a  Data  Lc  spec_ds.o [1]
_gm_                    0x20002708   0x1d4  Data  Lc  dlmalloc.o [4]
_ip_current_extremes    0x0808ecd8    0x9a  Data  Lc  spec_ds.o [1]
_ip_drive_current_alert
                        0x0808ed72    0x9a  Data  Lc  spec_ds.o [1]
_main                   0x080ac563          Code  Gb  cmain.o [8]
_near_closed_alert      0x0808dacc    0x9a  Data  Lc  spec_ds.o [1]
_pos_err_histogram      0x0808de68    0x9a  Data  Lc  spec_ds.o [1]
_pos_histogram          0x0808ddce    0x9a  Data  Lc  spec_ds.o [1]
_position_alert         0x0808d864    0x9a  Data  Lc  spec_ds.o [1]
_position_extremes      0x0808eb0a    0x9a  Data  Lc  spec_ds.o [1]
_position_limits        0x0808d5fc    0x9a  Data  Lc  spec_ds.o [1]
_pressure_extremes      0x0808eba4    0x9a  Data  Lc  spec_ds.o [1]
_struct2_u8             0x0808d42e    0x9a  Data  Lc  spec_ds.o [1]
_system_alert           0x0808db66    0x9a  Data  Lc  spec_ds.o [1]
_temperature_extremes   0x0808ec3e    0x9a  Data  Lc  spec_ds.o [1]
_travel                 0x0808d8fe    0x9a  Data  Lc  spec_ds.o [1]
_travel_alert           0x0808d998    0x9a  Data  Lc  spec_ds.o [1]
_travel_calibration     0x0808f074    0x9a  Data  Lc  spec_ds.o [1]
_trend                  0x0808dc9a    0x9a  Data  Lc  spec_ds.o [1]
_ui_access_ctrl         0x0808e036    0x9a  Data  Lc  spec_ds.o [1]
_ui_cust_conf           0x0808d562    0x9a  Data  Lc  spec_ds.o [1]
_valve_body_1           0x0808e76e    0x9a  Data  Lc  spec_ds.o [1]
_valve_body_2           0x0808e808    0x9a  Data  Lc  spec_ds.o [1]
_valve_body_3           0x0808e8a2    0x9a  Data  Lc  spec_ds.o [1]
_valve_identification   0x0808e63a    0x9a  Data  Lc  spec_ds.o [1]
_valve_info             0x0808e93c    0x9a  Data  Lc  spec_ds.o [1]
_valve_service          0x0808e6d4    0x9a  Data  Lc  spec_ds.o [1]
_working_time_alert     0x0808e338    0x9a  Data  Lc  spec_ds.o [1]
_working_times          0x0808ee0c    0x9a  Data  Lc  spec_ds.o [1]
_xd_fstate              0x0808dc00    0x9a  Data  Lc  spec_ds.o [1]
a_alert_buf             0x20007450     0x4  Data  Gb  fbs_alt.o [5]
a_of_null_obj           0x20012a04     0x4  Data  Lc  nmod.o [3]
abort                   0x0809929b     0x6  Code  Gb  abort.o [4]
activate_fd_sw          0x0809c93f    0x34  Code  Gb  mn_fwdl.o [1]
activate_fd_sw_internal
                        0x0809c8d9    0x66  Code  Gb  mn_fwdl.o [1]
aifb_1                  0x20002be4   0x190  Data  Gb  instance.o [1]
aifb_1_channels         0x08085368    0x2c  Data  Gb  instance.o [1]
aifb_1_dft              0x08085318    0x50  Data  Gb  instance.o [1]
aifb_2                  0x20002d74   0x190  Data  Gb  instance.o [1]
aifb_2_channels         0x080853e4    0x2c  Data  Gb  instance.o [1]
aifb_2_dft              0x08085394    0x50  Data  Gb  instance.o [1]
aifb_3                  0x20002f04   0x190  Data  Gb  instance.o [1]
aifb_3_channels         0x08085460    0x2c  Data  Gb  instance.o [1]
aifb_3_dft              0x08085410    0x50  Data  Gb  instance.o [1]
aifb_object             0x08080c98    0x34  Data  Lc  aifb.o [1]
aifb_object_ack_option  0x08081144    0x34  Data  Lc  aifb.o [1]
aifb_object_alarm_hys   0x08081178    0x34  Data  Lc  aifb.o [1]
aifb_object_alarm_sum   0x08081110    0x34  Data  Lc  aifb.o [1]
aifb_object_alert_key   0x08080d68    0x34  Data  Lc  aifb.o [1]
aifb_object_block_alm   0x080810dc    0x34  Data  Lc  aifb.o [1]
aifb_object_block_err   0x08080dd0    0x34  Data  Lc  aifb.o [1]
aifb_object_block_err_desc_1
                        0x0808141c    0x34  Data  Lc  aifb.o [1]
aifb_object_channel     0x08080fa4    0x34  Data  Lc  aifb.o [1]
aifb_object_field_val   0x08081074    0x34  Data  Lc  aifb.o [1]
aifb_object_grant_deny  0x08080f08    0x34  Data  Lc  aifb.o [1]
aifb_object_hi_alm      0x08081380    0x34  Data  Lc  aifb.o [1]
aifb_object_hi_hi_alm   0x0808134c    0x34  Data  Lc  aifb.o [1]
aifb_object_hi_hi_lim   0x080811e0    0x34  Data  Lc  aifb.o [1]
aifb_object_hi_hi_pri   0x080811ac    0x34  Data  Lc  aifb.o [1]
aifb_object_hi_lim      0x08081248    0x34  Data  Lc  aifb.o [1]
aifb_object_hi_pri      0x08081214    0x34  Data  Lc  aifb.o [1]
aifb_object_io_opts     0x08080f3c    0x34  Data  Lc  aifb.o [1]
aifb_object_l_type      0x08080fd8    0x34  Data  Lc  aifb.o [1]
aifb_object_lo_alm      0x080813b4    0x34  Data  Lc  aifb.o [1]
aifb_object_lo_lim      0x080812b0    0x34  Data  Lc  aifb.o [1]
aifb_object_lo_lo_alm   0x080813e8    0x34  Data  Lc  aifb.o [1]
aifb_object_lo_lo_lim   0x08081318    0x34  Data  Lc  aifb.o [1]
aifb_object_lo_lo_pri   0x080812e4    0x34  Data  Lc  aifb.o [1]
aifb_object_lo_pri      0x0808127c    0x34  Data  Lc  aifb.o [1]
aifb_object_low_cut     0x0808100c    0x34  Data  Lc  aifb.o [1]
aifb_object_mode_blk    0x08080d9c    0x34  Data  Lc  aifb.o [1]
aifb_object_out         0x08080e38    0x34  Data  Lc  aifb.o [1]
aifb_object_out_scale   0x08080ed4    0x34  Data  Lc  aifb.o [1]
aifb_object_pv          0x08080e04    0x34  Data  Lc  aifb.o [1]
aifb_object_pv_ftime    0x08081040    0x34  Data  Lc  aifb.o [1]
aifb_object_simulate    0x08080e6c    0x34  Data  Lc  aifb.o [1]
aifb_object_st_rev      0x08080ccc    0x34  Data  Lc  aifb.o [1]
aifb_object_status_opts
                        0x08080f70    0x34  Data  Lc  aifb.o [1]
aifb_object_strategy    0x08080d34    0x34  Data  Lc  aifb.o [1]
aifb_object_tag_desc    0x08080d00    0x34  Data  Lc  aifb.o [1]
aifb_object_update_evt  0x080810a8    0x34  Data  Lc  aifb.o [1]
aifb_object_view_1_1    0x08081450    0x78  Data  Gb  aifb.o [1]
aifb_object_view_2_1    0x080814c8    0x78  Data  Gb  aifb.o [1]
aifb_object_view_3_1    0x08081540    0x78  Data  Gb  aifb.o [1]
aifb_object_view_4_1    0x080815b8    0x78  Data  Gb  aifb.o [1]
aifb_object_xd_scale    0x08080ea0    0x34  Data  Lc  aifb.o [1]
aifb_param_dir          0x08080ad0   0x1c8  Data  Gb  aifb.o [1]
alert_AlertStorage      0x200014c0   0x208  Data  Lc  appl_alert.o [1]
alert_ClearBuffer       0x0809f445    0x28  Code  Lc  appl_alert.o [1]
alert_ReadBuffer        0x200016c8   0x200  Data  Lc  appl_alert.o [1]
alert_ReadBufferIndex   0x200010a4     0x2  Data  Lc  appl_alert.o [1]
alert_desc_list         0x2000744c     0x4  Data  Gb  fbs_alt.o [5]
alert_discrete          0x2000746c    0x18  Data  Gb  fbs_alt.o [5]
alert_discrete_obj_desc
                        0x080af798    0x38  Data  Lc  fbs_vfd.o [5]
alert_event             0x20007458    0x14  Data  Gb  fbs_alt.o [5]
alert_event_obj_desc    0x080af760    0x38  Data  Lc  fbs_vfd.o [5]
alert_fd                0x200074a0    0x1c  Data  Gb  fbs_alt.o [5]
alert_fielddiag_obj_desc
                        0x080af808    0x38  Data  Lc  fbs_vfd.o [5]
alert_float             0x20007484    0x1c  Data  Gb  fbs_alt.o [5]
alert_float_obj_desc    0x080af7d0    0x38  Data  Lc  fbs_vfd.o [5]
alert_list_wfconf       0x20007430     0x4  Data  Gb  fbs_alt.o [5]
alert_list_wflink       0x20007434     0x4  Data  Gb  fbs_alt.o [5]
alert_list_wfsend       0x2000742c     0x4  Data  Gb  fbs_alt.o [5]
alm                     0x20002908    0x1c  Data  Gb  ffbl_pai.o [1]
alwaysoff               0x0809f7cd     0x4  Code  Lc  mndoswff.o [1]
alwayson                0x0809f7c9     0x4  Code  Lc  mndoswff.o [1]
aofb_1                  0x20003094   0x12c  Data  Gb  instance.o [1]
aofb_1_channels         0x080854dc     0x8  Data  Gb  instance.o [1]
aofb_1_dft              0x0808548c    0x50  Data  Gb  instance.o [1]
aofb_object             0x08081984    0x34  Data  Lc  aofb.o [1]
aofb_object_alert_key   0x08081a54    0x34  Data  Lc  aofb.o [1]
aofb_object_bkcal_out   0x08081e98    0x34  Data  Lc  aofb.o [1]
aofb_object_block_alm   0x08081f9c    0x34  Data  Lc  aofb.o [1]
aofb_object_block_err   0x08081abc    0x34  Data  Lc  aofb.o [1]
aofb_object_block_err_desc_1
                        0x08081fd0    0x34  Data  Lc  aofb.o [1]
aofb_object_cas_in      0x08081cf8    0x34  Data  Lc  aofb.o [1]
aofb_object_channel     0x08081dfc    0x34  Data  Lc  aofb.o [1]
aofb_object_fstate_time
                        0x08081e30    0x34  Data  Lc  aofb.o [1]
aofb_object_fstate_val  0x08081e64    0x34  Data  Lc  aofb.o [1]
aofb_object_grant_deny  0x08081c28    0x34  Data  Lc  aofb.o [1]
aofb_object_io_opts     0x08081c5c    0x34  Data  Lc  aofb.o [1]
aofb_object_mode_blk    0x08081a88    0x34  Data  Lc  aofb.o [1]
aofb_object_out         0x08081b58    0x34  Data  Lc  aofb.o [1]
aofb_object_pv          0x08081af0    0x34  Data  Lc  aofb.o [1]
aofb_object_pv_scale    0x08081bc0    0x34  Data  Lc  aofb.o [1]
aofb_object_rcas_in     0x08081ecc    0x34  Data  Lc  aofb.o [1]
aofb_object_rcas_out    0x08081f34    0x34  Data  Lc  aofb.o [1]
aofb_object_readback    0x08081cc4    0x34  Data  Lc  aofb.o [1]
aofb_object_shed_opt    0x08081f00    0x34  Data  Lc  aofb.o [1]
aofb_object_simulate    0x08081b8c    0x34  Data  Lc  aofb.o [1]
aofb_object_sp          0x08081b24    0x34  Data  Lc  aofb.o [1]
aofb_object_sp_hi_lim   0x08081d94    0x34  Data  Lc  aofb.o [1]
aofb_object_sp_lo_lim   0x08081dc8    0x34  Data  Lc  aofb.o [1]
aofb_object_sp_rate_dn  0x08081d2c    0x34  Data  Lc  aofb.o [1]
aofb_object_sp_rate_up  0x08081d60    0x34  Data  Lc  aofb.o [1]
aofb_object_st_rev      0x080819b8    0x34  Data  Lc  aofb.o [1]
aofb_object_status_opts
                        0x08081c90    0x34  Data  Lc  aofb.o [1]
aofb_object_strategy    0x08081a20    0x34  Data  Lc  aofb.o [1]
aofb_object_tag_desc    0x080819ec    0x34  Data  Lc  aofb.o [1]
aofb_object_update_evt  0x08081f68    0x34  Data  Lc  aofb.o [1]
aofb_object_view_1_1    0x08082004    0x78  Data  Gb  aofb.o [1]
aofb_object_view_2_1    0x0808207c    0x78  Data  Gb  aofb.o [1]
aofb_object_view_3_1    0x080820f4    0x78  Data  Gb  aofb.o [1]
aofb_object_view_4_1    0x0808216c    0x78  Data  Gb  aofb.o [1]
aofb_object_xd_scale    0x08081bf4    0x34  Data  Lc  aofb.o [1]
aofb_param_dir          0x08081804   0x180  Data  Gb  aofb.o [1]
ap_dir_1_desc           0x20008734    0x34  Data  Gb  fbs_vfd.o [5]
ap_dir_2_desc           0x20008768    0x34  Data  Gb  fbs_vfd.o [5]
ap_directory            0x200085fc   0x138  Data  Gb  fbs_vfd.o [5]
appl_ap_dom_descr       0x20004a30     0x8  Data  Lc  appl_dlh.o [1]
appl_ap_dom_hdr         0x20004a38    0x20  Data  Lc  appl_dlh.o [1]
appl_ap_multidom_descr  0x20004a10    0x18  Data  Lc  appl_dlh.o [1]
appl_check_fd_dom_hdr   0x0809c4a9    0x56  Code  Gb  mn_fwdl.o [1]
appl_check_fd_dom_segm  0x0809c469     0x4  Code  Gb  appl_svi_swdl.o [1]
appl_config             0x08098e9d   0x1c4  Code  Lc  appl_if.o [1]
appl_dhl_init           0x0809a771    0x12  Code  Gb  appl_dlh.o [1]
appl_dia_check_function
                        0x0809aeab    0xba  Code  Lc  appl_dia.o [1]
appl_dia_check_transducer_block
                        0x0809af71    0x32  Code  Lc  appl_dia.o [1]
appl_dia_set_all_fd_conditions
                        0x0809ae73     0xe  Code  Gb  appl_dia.o [1]
appl_dia_set_one_fd_cond
                        0x0809ae81    0x12  Code  Gb  appl_dia.o [1]
appl_dia_start_field_diagnostics
                        0x0809aded    0x3a  Code  Gb  appl_dia.o [1]
appl_dia_update_field_diagnostics
                        0x0809ae27     0x2  Code  Gb  appl_dia.o [1]
appl_dlh_start          0x0809a783   0x1da  Code  Gb  appl_dlh.o [1]
appl_dwnld_cfg          0x200049dc    0x1c  Data  Lc  appl_dlh.o [1]
appl_dwnld_prop         0x200049d4     0x8  Data  Lc  appl_dlh.o [1]
appl_fd_dom_descr       0x20004a28     0x8  Data  Lc  appl_dlh.o [1]
appl_fd_dom_hdr         0x200049b4    0x20  Data  Gb  appl_dlh.o [1]
appl_fd_multidom_descr  0x200049f8    0x18  Data  Lc  appl_dlh.o [1]
appl_fd_sw_available    0x0809c461     0x4  Code  Gb  appl_svi_swdl.o [1]
appl_get_comm_state     0x0809d695     0x6  Code  Gb  appl_ptb.o [1]
appl_get_serial_number  0x08099117    0x9c  Code  Lc  appl_if.o [1]
appl_init               0x08098e31    0x2a  Code  Gb  appl_if.o [1]
appl_mb                 0x20002354    0x78  Data  Lc  osif_cfg.o [1]
appl_stack              0x20006c20   0x300  Data  Lc  osif_cfg.o [1]
appl_start              0x08099061    0xb6  Code  Lc  appl_if.o [1]
appl_store_fd_dom_hdr   0x0809c46d     0x4  Code  Gb  appl_svi_swdl.o [1]
appl_task               0x08098e5d    0x40  Code  Gb  appl_if.o [1]
arfb_1                  0x20004834   0x134  Data  Gb  instance.o [1]
arfb_1_dft              0x080858ac    0x50  Data  Gb  instance.o [1]
arfb_object             0x08082570    0x34  Data  Lc  arfb.o [1]
arfb_object_alert_key   0x08082640    0x34  Data  Lc  arfb.o [1]
arfb_object_arith_type  0x08082b54    0x34  Data  Lc  arfb.o [1]
arfb_object_bal_time    0x08082b88    0x34  Data  Lc  arfb.o [1]
arfb_object_bias        0x08082bbc    0x34  Data  Lc  arfb.o [1]
arfb_object_bias_in_1   0x080829b4    0x34  Data  Lc  arfb.o [1]
arfb_object_bias_in_2   0x08082a1c    0x34  Data  Lc  arfb.o [1]
arfb_object_bias_in_3   0x08082a84    0x34  Data  Lc  arfb.o [1]
arfb_object_block_alm   0x08082cc0    0x34  Data  Lc  arfb.o [1]
arfb_object_block_err   0x080826a8    0x34  Data  Lc  arfb.o [1]
arfb_object_block_err_desc_1
                        0x08082cf4    0x34  Data  Lc  arfb.o [1]
arfb_object_comp_hi_lim
                        0x08082aec    0x34  Data  Lc  arfb.o [1]
arfb_object_comp_lo_lim
                        0x08082b20    0x34  Data  Lc  arfb.o [1]
arfb_object_gain        0x08082bf0    0x34  Data  Lc  arfb.o [1]
arfb_object_gain_in_1   0x080829e8    0x34  Data  Lc  arfb.o [1]
arfb_object_gain_in_2   0x08082a50    0x34  Data  Lc  arfb.o [1]
arfb_object_gain_in_3   0x08082ab8    0x34  Data  Lc  arfb.o [1]
arfb_object_grant_deny  0x080827e0    0x34  Data  Lc  arfb.o [1]
arfb_object_in          0x08082848    0x34  Data  Lc  arfb.o [1]
arfb_object_in_1        0x080828b0    0x34  Data  Lc  arfb.o [1]
arfb_object_in_2        0x080828e4    0x34  Data  Lc  arfb.o [1]
arfb_object_in_3        0x08082918    0x34  Data  Lc  arfb.o [1]
arfb_object_in_lo       0x0808287c    0x34  Data  Lc  arfb.o [1]
arfb_object_input_opts  0x08082814    0x34  Data  Lc  arfb.o [1]
arfb_object_mode_blk    0x08082674    0x34  Data  Lc  arfb.o [1]
arfb_object_out         0x08082710    0x34  Data  Lc  arfb.o [1]
arfb_object_out_hi_lim  0x08082c24    0x34  Data  Lc  arfb.o [1]
arfb_object_out_lo_lim  0x08082c58    0x34  Data  Lc  arfb.o [1]
arfb_object_out_range   0x080827ac    0x34  Data  Lc  arfb.o [1]
arfb_object_pre_out     0x08082744    0x34  Data  Lc  arfb.o [1]
arfb_object_pv          0x080826dc    0x34  Data  Lc  arfb.o [1]
arfb_object_pv_scale    0x08082778    0x34  Data  Lc  arfb.o [1]
arfb_object_range_hi    0x0808294c    0x34  Data  Lc  arfb.o [1]
arfb_object_range_lo    0x08082980    0x34  Data  Lc  arfb.o [1]
arfb_object_st_rev      0x080825a4    0x34  Data  Lc  arfb.o [1]
arfb_object_strategy    0x0808260c    0x34  Data  Lc  arfb.o [1]
arfb_object_tag_desc    0x080825d8    0x34  Data  Lc  arfb.o [1]
arfb_object_update_evt  0x08082c8c    0x34  Data  Lc  arfb.o [1]
arfb_object_view_1_1    0x08082d28    0x78  Data  Gb  arfb.o [1]
arfb_object_view_2_1    0x08082da0    0x78  Data  Gb  arfb.o [1]
arfb_object_view_3_1    0x08082e18    0x78  Data  Gb  arfb.o [1]
arfb_object_view_4_1    0x08082e90    0x78  Data  Gb  arfb.o [1]
arfb_param_dir          0x080823a8   0x1c8  Data  Gb  arfb.o [1]
assert_msg              0x20007420     0xc  Data  Lc  mnassert.o [1]
assert_time             0x200024fc     0x4  Data  Lc  mnassert.o [1]
bMsgAlloc               0x20012424     0x1  Data  Lc  dll_drx.o [3]
bNtValid                0x20012ab1     0x1  Data  Gb  dll_bas.o [3]
bRcvErr                 0x20012ab5     0x1  Data  Gb  dll_bas.o [3]
bRcvFrmErr              0x20012ab6     0x1  Data  Gb  dll_bas.o [3]
bSndActive              0x20012ab9     0x1  Data  Gb  dll_bas.o [3]
bUsrData                0x20012ab4     0x1  Data  Gb  dll_bas.o [3]
bWaitOnDt35             0x20012ab2     0x1  Data  Gb  dll_bas.o [3]
bad_block               0x200011dd     0x1  Data  Lc  eep_if.o [1]
badblock                0x08098429    0x20  Code  Lc  eep_if.o [1]
banklimits              0x0809e0e0    0x10  Data  Lc  stm_flash.o [1]
bgd50_mb                0x200020e4    0x30  Data  Lc  osif_cfg.o [1]
bgd50_stack             0x200058a0   0x280  Data  Lc  osif_cfg.o [1]
bgd_mb                  0x20002114    0x30  Data  Lc  osif_cfg.o [1]
bgd_stack               0x20005b20   0x800  Data  Lc  osif_cfg.o [1]
bios_WritePwm           0x08097999     0x2  Code  Gb  mn_flash_selftest.o [1]
block_err_table         0x08094bb8    0x20  Data  Lc  ffbl_bas.o [1]
block_under_test        0x200011dc     0x1  Data  Lc  eep_if.o [1]
bufIx                   0x2000117c     0x4  Data  Lc  mn_fwdl.o [1]
burst                   0x200019f5     0x1  Data  Lc  hm.o [1]
burst_indicate          0x20001a00     0x4  Data  Lc  hm.o [1]
byteCount               0x20001178     0x4  Data  Lc  mn_fwdl.o [1]
c_aifb                  0x08080940   0x190  Data  Gb  aifb.o [1]
c_aofb                  0x080816d8   0x12c  Data  Gb  aofb.o [1]
c_arfb                  0x08082274   0x134  Data  Gb  arfb.o [1]
c_csfb                  0x08082fb0    0xf4  Data  Gb  csfb.o [1]
c_difb                  0x080838f4    0xd8  Data  Gb  difb.o [1]
c_dofb                  0x080842a4    0xc0  Data  Gb  dofb.o [1]
c_isfb                  0x080858fc    0xe0  Data  Gb  isfb.o [1]
c_maifb                 0x080862b4    0xdc  Data  Gb  maifb.o [1]
c_osfb                  0x08086a8c   0x118  Data  Gb  osfb.o [1]
c_pidfb                 0x0808747c   0x26c  Data  Gb  pidfb.o [1]
c_ptb                   0x08088b70   0xaa4  Data  Gb  ptb.o [1]
c_resb                  0x0808bc40   0x288  Data  Gb  resb.o [1]
cache_points            0x20001338    0x4c  Data  Lc  mncharactff.o [1]
cache_valid             0x2000259f     0x1  Data  Lc  mncharactff.o [1]
calc_crc                0x0809a54d    0x28  Code  Gb  hw_io.o [1]
calc_input_states       0x080a807f    0x6e  Code  Lc  ffbl_is.o [1]
calc_osfb_data          0x080a8983    0xb4  Code  Lc  ffbl_os.o [1]
calc_out_values         0x080a8db5    0xd0  Code  Lc  ffbl_os.o [1]
calc_pv_status_and_value
                        0x080a75af   0x12c  Code  Lc  ffbl_ar.o [1]
calc_setpoint           0x080a8be5   0x100  Code  Lc  ffbl_os.o [1]
calc_working_setpoints  0x080a8ce5    0xd0  Code  Lc  ffbl_os.o [1]
capture                 0x200011ec     0x4  Data  Lc  eep_if.o [1]
cd2_frame               0x2000d1b0     0x8  Data  Lc  dll_las.o [3]
ce                      0x20001168     0xc  Data  Lc  mn_fwdl.o [1]
charactFlatTable_CAMFLEX_EQ30
                        0x08092eea    0x58  Data  Gb  poschrtab.o [1]
charactFlatTable_EQUAL_30
                        0x08092de2    0x58  Data  Gb  poschrtab.o [1]
charactFlatTable_EQUAL_50
                        0x08092e3a    0x58  Data  Gb  poschrtab.o [1]
charactFlatTable_LINEAR
                        0x08092d8a    0x58  Data  Gb  poschrtab.o [1]
charactFlatTable_QUICK_OPEN
                        0x08092e92    0x58  Data  Gb  poschrtab.o [1]
charact_ComputeFlatCharactArray
                        0x080a0b55   0x164  Code  Lc  mncharactff.o [1]
check_float             0x080b23ad    0x28  Code  Gb  fbs_run.o [5]
chk_mgmt                0x20010fe8     0x1  Data  Lc  faltim.o [3]
chkpro_CheckProcess     0x080a2539    0x24  Code  Gb  mn_checkproc.o [1]
cif_get_system_time     0x080ad473    0x36  Code  Gb  fdc.o [3]
cif_init                0x080ad3fd    0x76  Code  Gb  fdc.o [3]
cl_frame                0x20012aa8     0x2  Data  Lc  dll_ltim.o [3]
cmd_170_176_read_handler
                        0x080a2dc3    0x8c  Code  Lc  lui_ipc_variables.o [1]
cmd_170_handler         0x080a2e4f    0x20  Code  Gb  lui_ipc_variables.o [1]
cmd_186_handler         0x080a2c75    0x98  Code  Gb  lui_ipc_variables.o [1]
cmd_187_handler         0x080a2d13    0x72  Code  Gb  lui_ipc_variables.o [1]
comm_state              0x2000113c     0x1  Data  Gb  appl_ptb.o [1]
complete_fd_dom_is_avail
                        0x0809c475     0x4  Code  Gb  appl_svi_swdl.o [1]
compressed              0x20001166     0x1  Data  Lc  mn_fwdl.o [1]
config_update_active_req
                        0x200011a2     0x1  Data  Lc  hm_task.o [1]
conn_description        0x2000d270  0x32c8  Data  Gb  falvcr.o [3]
control_parameters_record
                        0x0808d394    0x9a  Data  Lc  spec_ds.o [1]
convert_sys_time_to_ms  0x080aeaf1    0x16  Code  Lc  fbs_alt.o [5]
copyright               0x08092f95    0x39  Data  Lc  appl_if.o [1]
count                   0x20004b68     0x4  Data  Lc  hm.o [1]
cpuDest                 0x20001165     0x1  Data  Lc  mn_fwdl.o [1]
crc                     0x200023cc     0x2  Data  Lc  selftest.o [1]
crc_end                 0x0809a53d    0x10  Code  Gb  hw_io.o [1]
crc_feed                0x0809a52d    0x10  Code  Gb  hw_io.o [1]
crc_start               0x0809a523     0xa  Code  Gb  hw_io.o [1]
crctable                0x08095b3c   0x200  Data  Lc  crc.o [1]
csfb_1                  0x20004740    0xf4  Data  Gb  instance.o [1]
csfb_1_dft              0x0808585c    0x50  Data  Gb  instance.o [1]
csfb_object             0x080831c4    0x34  Data  Lc  csfb.o [1]
csfb_object_alert_key   0x08083294    0x34  Data  Lc  csfb.o [1]
csfb_object_bkcal_in    0x080834d0    0x34  Data  Lc  csfb.o [1]
csfb_object_bkcal_sel_1
                        0x0808356c    0x34  Data  Lc  csfb.o [1]
csfb_object_bkcal_sel_2
                        0x080835a0    0x34  Data  Lc  csfb.o [1]
csfb_object_bkcal_sel_3
                        0x080835d4    0x34  Data  Lc  csfb.o [1]
csfb_object_block_alm   0x0808363c    0x34  Data  Lc  csfb.o [1]
csfb_object_block_err   0x080832fc    0x34  Data  Lc  csfb.o [1]
csfb_object_block_err_desc_1
                        0x08083670    0x34  Data  Lc  csfb.o [1]
csfb_object_grant_deny  0x08083398    0x34  Data  Lc  csfb.o [1]
csfb_object_mode_blk    0x080832c8    0x34  Data  Lc  csfb.o [1]
csfb_object_out         0x08083330    0x34  Data  Lc  csfb.o [1]
csfb_object_out_hi_lim  0x08083504    0x34  Data  Lc  csfb.o [1]
csfb_object_out_lo_lim  0x08083538    0x34  Data  Lc  csfb.o [1]
csfb_object_out_scale   0x08083364    0x34  Data  Lc  csfb.o [1]
csfb_object_sel_1       0x08083400    0x34  Data  Lc  csfb.o [1]
csfb_object_sel_2       0x08083434    0x34  Data  Lc  csfb.o [1]
csfb_object_sel_3       0x08083468    0x34  Data  Lc  csfb.o [1]
csfb_object_sel_type    0x0808349c    0x34  Data  Lc  csfb.o [1]
csfb_object_st_rev      0x080831f8    0x34  Data  Lc  csfb.o [1]
csfb_object_status_opts
                        0x080833cc    0x34  Data  Lc  csfb.o [1]
csfb_object_strategy    0x08083260    0x34  Data  Lc  csfb.o [1]
csfb_object_tag_desc    0x0808322c    0x34  Data  Lc  csfb.o [1]
csfb_object_update_evt  0x08083608    0x34  Data  Lc  csfb.o [1]
csfb_object_view_1_1    0x080836a4    0x78  Data  Gb  csfb.o [1]
csfb_object_view_2_1    0x0808371c    0x78  Data  Gb  csfb.o [1]
csfb_object_view_3_1    0x08083794    0x78  Data  Gb  csfb.o [1]
csfb_object_view_4_1    0x0808380c    0x78  Data  Gb  csfb.o [1]
csfb_param_dir          0x080830a4   0x120  Data  Gb  csfb.o [1]
csr                     0x20004d6c     0x4  Data  Lc  hw_init.o [1]
ctFrame                 0x2000d0a5     0x1  Data  Lc  dll_las.o [3]
ctMessageBlock          0x2000d1b8    0x20  Data  Lc  dll_las.o [3]
ctllim_Populate         0x080a157b    0x8a  Code  Lc  mnctllimff.o [1]
ctrl_param_Autotune     0x080a1afb    0x6e  Code  Gb  ctrl_param_set.o [1]
ctrl_param_ReadActiveCtrlSet
                        0x080a18dd    0x20  Code  Gb  ctrl_param_set.o [1]
ctrl_param_ReadAutotuneParam
                        0x080a1abd    0x3e  Code  Gb  ctrl_param_set.o [1]
ctrl_param_ReadCtrlSetParam
                        0x080a18fd    0x80  Code  Gb  ctrl_param_set.o [1]
ctrl_param_WriteActivate
                        0x080a197d   0x140  Code  Gb  ctrl_param_set.o [1]
ctrl_param_WriteCustom  0x080a1b69    0xd8  Code  Gb  ctrl_param_set.o [1]
ctxa                    0x200012c8    0x70  Data  Lc  sha256.o [1]
custom_var_mapping      0x080a30a0    0x13  Data  Gb  lui_ipc_variables.o [1]
cyc_active_req          0x200011a1     0x1  Data  Lc  hm_task.o [1]
cycle_time_nv_ram       0x20007a62     0x2  Data  Lc  fbs_run.o [5]
data_in                 0x20007e1c     0x4  Data  Gb  sm.o [3]
data_out                0x20007e24     0x4  Data  Lc  sm.o [3]
default_exception_handler
                        0x08095a31    0x5a  Code  Gb  osif_mn.o [1]
default_interrupt_count
                        0x20001a48     0x4  Data  Gb  hw_intr.o [1]
determine_pre_out_status
                        0x080a7c55    0x18  Code  Lc  ffbl_ar.o [1]
dev_id                  0x200013b0    0x20  Data  Lc  lui_ipc_variables.o [1]
dev_id_checksum         0x20007e18     0x2  Data  Gb  sm.o [3]
device                  0x20001a51     0x1  Data  Lc  hw_i2c.o [1]
device_has_field_diagnostic
                        0x20008574     0x1  Data  Lc  fbs_init.o [5]
device_has_float_alarms
                        0x20008573     0x1  Data  Lc  fbs_init.o [5]
device_in_token_ring    0x0809a5b3     0x2  Code  Gb  hw_io.o [1]
device_not_in_token_ring
                        0x0809a5b5     0x2  Code  Gb  hw_io.o [1]
device_param            0x080a2b21    0x18  Code  Lc  lui_ipc_variables.o [1]
difb_1                  0x200031c0    0xd8  Data  Gb  instance.o [1]
difb_1_channels         0x08085534    0x10  Data  Gb  instance.o [1]
difb_1_dft              0x080854e4    0x50  Data  Gb  instance.o [1]
difb_2                  0x20003298    0xd8  Data  Gb  instance.o [1]
difb_2_channels         0x08085594    0x10  Data  Gb  instance.o [1]
difb_2_dft              0x08085544    0x50  Data  Gb  instance.o [1]
difb_object             0x08083b04    0x34  Data  Lc  difb.o [1]
difb_object_ack_option  0x08083f48    0x34  Data  Lc  difb.o [1]
difb_object_alarm_sum   0x08083f14    0x34  Data  Lc  difb.o [1]
difb_object_alert_key   0x08083bd4    0x34  Data  Lc  difb.o [1]
difb_object_block_alm   0x08083ee0    0x34  Data  Lc  difb.o [1]
difb_object_block_err   0x08083c3c    0x34  Data  Lc  difb.o [1]
difb_object_block_err_desc_1
                        0x08084018    0x34  Data  Lc  difb.o [1]
difb_object_channel     0x08083e10    0x34  Data  Lc  difb.o [1]
difb_object_disc_alm    0x08083fe4    0x34  Data  Lc  difb.o [1]
difb_object_disc_lim    0x08083fb0    0x34  Data  Lc  difb.o [1]
difb_object_disc_pri    0x08083f7c    0x34  Data  Lc  difb.o [1]
difb_object_field_val_d
                        0x08083e78    0x34  Data  Lc  difb.o [1]
difb_object_grant_deny  0x08083d74    0x34  Data  Lc  difb.o [1]
difb_object_io_opts     0x08083da8    0x34  Data  Lc  difb.o [1]
difb_object_mode_blk    0x08083c08    0x34  Data  Lc  difb.o [1]
difb_object_out_d       0x08083ca4    0x34  Data  Lc  difb.o [1]
difb_object_out_state   0x08083d40    0x34  Data  Lc  difb.o [1]
difb_object_pv_d        0x08083c70    0x34  Data  Lc  difb.o [1]
difb_object_pv_ftime    0x08083e44    0x34  Data  Lc  difb.o [1]
difb_object_simulate_d  0x08083cd8    0x34  Data  Lc  difb.o [1]
difb_object_st_rev      0x08083b38    0x34  Data  Lc  difb.o [1]
difb_object_status_opts
                        0x08083ddc    0x34  Data  Lc  difb.o [1]
difb_object_strategy    0x08083ba0    0x34  Data  Lc  difb.o [1]
difb_object_tag_desc    0x08083b6c    0x34  Data  Lc  difb.o [1]
difb_object_update_evt  0x08083eac    0x34  Data  Lc  difb.o [1]
difb_object_view_1_1    0x0808404c    0x78  Data  Gb  difb.o [1]
difb_object_view_2_1    0x080840c4    0x78  Data  Gb  difb.o [1]
difb_object_view_3_1    0x0808413c    0x78  Data  Gb  difb.o [1]
difb_object_view_4_1    0x080841b4    0x78  Data  Gb  difb.o [1]
difb_object_xd_state    0x08083d0c    0x34  Data  Lc  difb.o [1]
difb_param_dir          0x080839cc   0x138  Data  Gb  difb.o [1]
dlState                 0x20001164     0x1  Data  Lc  mn_fwdl.o [1]
dll_acc_upd_las_sched   0x080b8957    0x3e  Code  Gb  dll_acc.o [3]
dll_action_sent         0x080bb3c3    0xf4  Code  Lc  dll_ltx.o [3]
dll_addr_check_cd2_pub  0x080bcef1    0x4a  Code  Gb  dll_addr.o [3]
dll_addr_check_cd2_sub  0x080bcf3b    0x30  Code  Gb  dll_addr.o [3]
dll_addr_check_select   0x080bcec9    0x28  Code  Gb  dll_addr.o [3]
dll_addr_select         0x2000ad4c   0x100  Data  Gb  dll_bas.o [3]
dll_addr_set_loc_cdb    0x080bcddd    0x76  Code  Gb  dll_addr.o [3]
dll_addr_set_rem_cdb    0x080bce53    0x76  Code  Gb  dll_addr.o [3]
dll_address             0x2000a2d4   0x33c  Data  Gb  dll_bas.o [3]
dll_bas_chk_token_rcvd  0x080b7fd3    0x2c  Code  Gb  dll_bas.o [3]
dll_bas_put_abort_msg   0x080b7f85    0x36  Code  Gb  dll_bas.o [3]
dll_bas_restart         0x080b7f2b    0x5a  Code  Gb  dll_bas.o [3]
dll_bas_set_basic_cfg   0x080b7fff     0xc  Code  Gb  dll_bas.o [3]
dll_bas_set_node_address
                        0x080b7fbb    0x18  Code  Gb  dll_bas.o [3]
dll_basic_cfg           0x2000a630    0x10  Data  Gb  dll_bas.o [3]
dll_basic_info          0x2000a610    0x10  Data  Gb  dll_bas.o [3]
dll_busparam            0x2000acdc    0x20  Data  Gb  dll_bas.o [3]
dll_calc_eep_size       0x080bbb3d    0x12  Code  Gb  dll_cfg.o [3]
dll_cd2_sent            0x080bb6c3    0xb8  Code  Lc  dll_ltx.o [3]
dll_cfg_init            0x2000d0a6     0x1  Data  Lc  dll_las.o [3]
dll_check_address       0x080b8db9    0x22  Code  Gb  dll_acc.o [3]
dll_check_busparam      0x080b8029    0x3a  Code  Gb  dll_acc.o [3]
dll_check_fbc_watchdog  0x080b6f67    0x58  Code  Gb  dll_spc4.o [3]
dll_check_queue         0x080bb8ad    0x3a  Code  Lc  dll_msg.o [3]
dll_chk_local_link      0x080b8de1    0x14  Code  Gb  dll_acc.o [3]
dll_cl_sent_1           0x080bb59f    0x18  Code  Lc  dll_ltx.o [3]
dll_cl_sent_2           0x080bb5b7    0x4a  Code  Lc  dll_ltx.o [3]
dll_com_clear           0x080b679b    0x26  Code  Gb  dll_spc4.o [3]
dll_com_init            0x080b6641   0x15a  Code  Gb  dll_spc4.o [3]
dll_com_res_timer_evt   0x080b6e03     0xa  Code  Gb  dll_spc4.o [3]
dll_com_send            0x080b6a75    0x2e  Code  Gb  dll_spc4.o [3]
dll_com_set_bus_param   0x080b67c1    0xb0  Code  Gb  dll_spc4.o [3]
dll_com_set_vtn         0x080b6a51    0x24  Code  Gb  dll_spc4.o [3]
dll_continue_watch_time
                        0x080b6a41    0x10  Code  Gb  dll_spc4.o [3]
dll_current_prio        0x2000a27a     0x1  Data  Gb  dll_bas.o [3]
dll_current_state       0x2000a279     0x1  Data  Gb  dll_bas.o [3]
dll_delete_addr         0x080b8cc5    0xf4  Code  Gb  dll_acc.o [3]
dll_delete_addr_table   0x080b8b59    0x36  Code  Gb  dll_acc.o [3]
dll_dft_sent            0x080bb77b     0x6  Code  Lc  dll_ltx.o [3]
dll_div_node_time       0x080b8085   0x106  Code  Gb  dll_acc.o [3]
dll_dt3_dt5_sent        0x080bb223    0x16  Code  Lc  dll_ltx.o [3]
dll_enable_fieldbus_controller
                        0x080b7f03    0x28  Code  Gb  dll_bas.o [3]
dll_events              0x2000a26c     0xc  Data  Gb  dll_bas.o [3]
dll_fbc_check_pr        0x080b7031     0x2  Code  Gb  dll_spc4.o [3]
dll_fbc_get_data        0x080b6fbf    0x36  Code  Gb  dll_spc4.o [3]
dll_fbc_restart         0x080b6eab    0xa2  Code  Lc  dll_spc4.o [3]
dll_final_sent          0x080bb4b7    0x66  Code  Lc  dll_ltx.o [3]
dll_get_basic_info      0x080b8209    0x3a  Code  Gb  dll_acc.o [3]
dll_get_cfg_link_settings
                        0x080b827f    0x3e  Code  Gb  dll_acc.o [3]
dll_get_cur_link_settings
                        0x080b8243    0x3c  Code  Gb  dll_acc.o [3]
dll_get_las_cfg         0x080bbd3f     0x6  Code  Gb  dll_cfg.o [3]
dll_get_live_list       0x080b8a47    0x3a  Code  Gb  dll_acc.o [3]
dll_get_lm_data_cfg     0x080bbd39     0x6  Code  Gb  dll_cfg.o [3]
dll_get_lm_info         0x080b860b    0x74  Code  Gb  dll_acc.o [3]
dll_get_max_token_hold  0x080b8a81    0x5c  Code  Gb  dll_acc.o [3]
dll_get_node_address    0x080b818b     0x8  Code  Gb  dll_acc.o [3]
dll_get_node_time       0x080b6b97    0x6a  Code  Gb  dll_spc4.o [3]
dll_handle_cd2          0x080b7b73    0x5c  Code  Gb  dll_lrx.o [3]
dll_hold_deleg_tok      0x080bb24b   0x178  Code  Gb  dll_ltx.o [3]
dll_init                0x080b7e29    0x3e  Code  Gb  dll_bas.o [3]
dll_insert_addr         0x080b8b8f   0x10e  Code  Gb  dll_acc.o [3]
dll_is_link_master      0x080b8a37    0x10  Code  Gb  dll_acc.o [3]
dll_las_check_tl        0x080ba9a5    0xa6  Code  Gb  dll_las.o [3]
dll_las_chk_linksettings
                        0x080bb10d    0x70  Code  Gb  dll_las.o [3]
dll_las_claim           0x080bd06b    0x2a  Code  Lc  dll_ltim.o [3]
dll_las_create_ll_change
                        0x080ba825    0x7c  Code  Lc  dll_las.o [3]
dll_las_get_start       0x080bac4d     0xe  Code  Gb  dll_las.o [3]
dll_las_idle_sent       0x080bb601    0x54  Code  Lc  dll_ltx.o [3]
dll_las_init            0x080b9e87   0x240  Code  Gb  dll_las.o [3]
dll_las_list            0x2000b888  0x1804  Data  Gb  dll_bas.o [3]
dll_las_reset           0x080ba113    0x54  Code  Gb  dll_las.o [3]
dll_las_scheduler_token
                        0x080ba35f   0x3ac  Code  Gb  dll_las.o [3]
dll_las_set_node_live   0x080ba0c7    0x4c  Code  Gb  dll_las.o [3]
dll_las_start           0x080ba167   0x176  Code  Lc  dll_las.o [3]
dll_las_sync            0x080bcf81    0x74  Code  Lc  dll_ltim.o [3]
dll_las_update_pt_cycle
                        0x080ba70b   0x11a  Code  Gb  dll_las.o [3]
dll_las_wait_for_act    0x080bd095    0x28  Code  Lc  dll_ltim.o [3]
dll_las_wait_for_data1  0x080bd0bd     0xc  Code  Lc  dll_ltim.o [3]
dll_las_wait_for_data_rx
                        0x080b7c17    0x46  Code  Lc  dll_lrx.o [3]
dll_las_wait_for_pr1    0x080bd0c9    0x34  Code  Lc  dll_ltim.o [3]
dll_las_wait_for_pr_rx  0x080b7c5d    0x64  Code  Lc  dll_lrx.o [3]
dll_las_wait_for_tl1    0x080bd0fd    0x18  Code  Lc  dll_ltim.o [3]
dll_las_wait_for_tl_rx  0x080b7cc1    0x6a  Code  Lc  dll_lrx.o [3]
dll_las_wait_on_deleg_ret
                        0x080bcff5    0x50  Code  Lc  dll_ltim.o [3]
dll_learn_vars          0x080b7379   0x204  Code  Lc  dll_lrx.o [3]
dll_link_settings_dsc   0x080b8f00    0x18  Data  Lc  dll_acc.o [3]
dll_list_change_node    0x080bc1a7   0x2de  Code  Gb  dll_list.o [3]
dll_list_init           0x080bbd51    0x2e  Code  Gb  dll_list.o [3]
dll_list_next_node      0x080bc10f    0x98  Code  Gb  dll_list.o [3]
dll_list_reset          0x080bc033    0x6c  Code  Gb  dll_list.o [3]
dll_list_set_node       0x080bc09f    0x70  Code  Gb  dll_list.o [3]
dll_list_update_ll      0x080bc485    0xf8  Code  Gb  dll_list.o [3]
dll_list_update_range   0x080bc8d9   0x3b4  Code  Gb  dll_list.o [3]
dll_lm_info_dsc         0x080b8f18    0x12  Data  Lc  dll_acc.o [3]
dll_load_busparam       0x080b8063    0x22  Code  Gb  dll_acc.o [3]
dll_load_las_defaults   0x080bbb83     0xa  Code  Gb  dll_cfg.o [3]
dll_load_lm_data_defaults
                        0x080bbb7b     0x8  Code  Gb  dll_cfg.o [3]
dll_load_lm_info_defaults
                        0x080bbb4f    0x2c  Code  Gb  dll_cfg.o [3]
dll_max_token_hold_time
                        0x2000b478   0x1e0  Data  Gb  dll_bas.o [3]
dll_mrd_st              0x2000a644     0x2  Data  Gb  dll_bas.o [3]
dll_mrd_st_loc          0x20012a9a     0x2  Data  Gb  dll_bas.o [3]
dll_msg_chk_qur         0x080bb981    0x5a  Code  Gb  dll_msg.o [3]
dll_msg_get_from_qur    0x080bb93f    0x42  Code  Gb  dll_msg.o [3]
dll_msg_get_from_qurs   0x080bba0b    0x3e  Code  Gb  dll_msg.o [3]
dll_msg_init            0x080bb885    0x28  Code  Gb  dll_msg.o [3]
dll_msg_put_to_qur      0x080bb8e7    0x58  Code  Gb  dll_msg.o [3]
dll_msg_put_to_qurs     0x080bb9db    0x30  Code  Gb  dll_msg.o [3]
dll_msg_put_to_qus      0x080bba49    0x82  Code  Gb  dll_msg.o [3]
dll_msg_withdraw_from_qus
                        0x080bbacb    0x50  Code  Gb  dll_msg.o [3]
dll_new_time_periods    0x20012ab7     0x1  Data  Gb  dll_bas.o [3]
dll_next_interval       0x20012a9e     0x2  Data  Gb  dll_bas.o [3]
dll_no_token            0x080b76bb    0xca  Code  Gb  dll_lrx.o [3]
dll_notfinal_td         0x080bb6a3    0x20  Code  Lc  dll_ltx.o [3]
dll_pn_sent             0x080bb781    0x10  Code  Lc  dll_ltx.o [3]
dll_pr_sent             0x080bb1fd    0x1c  Code  Lc  dll_ltx.o [3]
dll_pr_unmatched        0x080bb219     0xa  Code  Lc  dll_ltx.o [3]
dll_prep_pn_frame       0x080b6dbb    0x3c  Code  Gb  dll_spc4.o [3]
dll_prep_rt_frame       0x080b6df7     0xc  Code  Gb  dll_spc4.o [3]
dll_prep_td_frame       0x080b6d21    0x24  Code  Gb  dll_spc4.o [3]
dll_pt_list             0x2000b0b8   0x3c0  Data  Gb  dll_bas.o [3]
dll_pt_offs             0x20012aa4     0x2  Data  Gb  dll_bas.o [3]
dll_pt_sent             0x080bb655    0x4e  Code  Lc  dll_ltx.o [3]
dll_pt_size             0x20012aa6     0x2  Data  Gb  dll_bas.o [3]
dll_publisher_sent      0x080bb7a1    0x10  Code  Lc  dll_ltx.o [3]
dll_rcv_node_time       0x080b6c01   0x120  Code  Gb  dll_spc4.o [3]
dll_rcv_que             0x2000ad24     0x8  Data  Gb  dll_bas.o [3]
dll_rcv_sub_que         0x2000ad1c     0x8  Data  Gb  dll_bas.o [3]
dll_recover_tok         0x080bb51d    0x10  Code  Lc  dll_ltx.o [3]
dll_rel_las_retry       0x2000a642     0x1  Data  Gb  dll_bas.o [3]
dll_reload_watch_time   0x080b69e9    0x58  Code  Gb  dll_spc4.o [3]
dll_remain_token_hold   0x20012a9c     0x2  Data  Gb  dll_bas.o [3]
dll_req_las             0x2000a640     0x1  Data  Gb  dll_bas.o [3]
dll_reset_las_schedule  0x080b9e41    0x46  Code  Lc  dll_las.o [3]
dll_rx_end_actions      0x08091678    0x6c  Data  Gb  dll_lrx.o [3]
dll_rx_ignore           0x080b7363    0x16  Code  Lc  dll_lrx.o [3]
dll_rx_init             0x080b72f9    0x66  Code  Gb  dll_lrx.o [3]
dll_rx_reset            0x080b735f     0x4  Code  Lc  dll_lrx.o [3]
dll_send_cfg_ll_change  0x080ba2dd    0x82  Code  Lc  dll_las.o [3]
dll_send_dtb_sta        0x2000d0a8     0x1  Data  Lc  dll_las.o [3]
dll_send_pn             0x2000d0a7     0x1  Data  Lc  dll_las.o [3]
dll_send_td             0x2000d0a9     0x1  Data  Lc  dll_las.o [3]
dll_set_cfg_link_settings
                        0x080b82bd   0x34e  Code  Gb  dll_acc.o [3]
dll_set_dft_node_addr   0x080b757d    0x38  Code  Lc  dll_lrx.o [3]
dll_set_event           0x2000a25c    0x10  Data  Gb  dll_bas.o [3]
dll_set_gap_time        0x080b68f3    0x5a  Code  Gb  dll_spc4.o [3]
dll_set_las             0x080b8995    0xa2  Code  Gb  dll_acc.o [3]
dll_set_lm_info         0x080b8681   0x2d6  Code  Gb  dll_acc.o [3]
dll_set_max_token_hold  0x080b8add    0x7c  Code  Gb  dll_acc.o [3]
dll_set_mon_time        0x080b694d    0x48  Code  Gb  dll_spc4.o [3]
dll_set_node_address    0x080b8193    0x76  Code  Gb  dll_acc.o [3]
dll_set_node_time       0x080b6b21    0x76  Code  Gb  dll_spc4.o [3]
dll_set_watch_time      0x080b6995    0x54  Code  Gb  dll_spc4.o [3]
dll_snd_node_time       0x080b6d45    0x76  Code  Gb  dll_spc4.o [3]
dll_snd_que             0x2000ad2c    0x20  Data  Gb  dll_bas.o [3]
dll_spc4_copy           0x080b6e3b    0x70  Code  Gb  dll_spc4.o [3]
dll_spc4_rx_end         0x080b6e0d    0x2e  Code  Lc  dll_spc4.o [3]
dll_sr_sent             0x080bb239    0x12  Code  Lc  dll_ltx.o [3]
dll_start               0x080b7e67    0x9c  Code  Gb  dll_bas.o [3]
dll_start_crd           0x080b6871    0x82  Code  Gb  dll_spc4.o [3]
dll_station_type        0x2000a27b     0x1  Data  Gb  dll_bas.o [3]
dll_t_stamp             0x2000d0ae     0x2  Data  Lc  dll_las.o [3]
dll_this_node_tok       0x20012ab8     0x1  Data  Gb  dll_bas.o [3]
dll_timeout_actions     0x080916e4    0x6c  Data  Gb  dll_ltim.o [3]
dll_tl_sent             0x080bb791    0x10  Code  Lc  dll_ltx.o [3]
dll_trigger_fbc_watchdog
                        0x080b6f4d    0x1a  Code  Lc  dll_spc4.o [3]
dll_tx_end_actions      0x080bb818    0x6c  Data  Gb  dll_ltx.o [3]
dll_tx_init             0x080bb1ed    0x10  Code  Gb  dll_ltx.o [3]
dll_update_las          0x080bac81   0x390  Code  Gb  dll_las.o [3]
dll_wait_for_act        0x080b75b5   0x106  Code  Lc  dll_lrx.o [3]
dll_wait_for_td1        0x080bd045    0x26  Code  Lc  dll_ltim.o [3]
dll_wait_for_td_rx      0x080b7bcf    0x48  Code  Lc  dll_lrx.o [3]
dll_wait_for_tl_n_pt    0x2000a641     0x1  Data  Gb  dll_bas.o [3]
dll_write_addr          0x080b8e01    0xc4  Code  Gb  dll_acc.o [3]
dll_xmit                0x080b6aa3    0x7e  Code  Gb  dll_spc4.o [3]
dllcfg_init             0x080bbb31     0xc  Code  Gb  dll_cfg.o [3]
dllcfg_sort_schedule    0x080bbcb1    0x88  Code  Lc  dll_cfg.o [3]
dllcfg_start            0x080bbb8d    0x14  Code  Gb  dll_cfg.o [3]
dllcfg_unpack_schedule  0x080bbba1   0x110  Code  Gb  dll_cfg.o [3]
dmaTransmitBuffer       0x20004b70    0x7c  Data  Lc  hm.o [1]
dma_receiveBuffer       0x20004bec    0x7c  Data  Lc  hm.o [1]
doRestartUART           0x2000259d     0x1  Data  Gb  appl_res.o [1]
doblock                 0x0809f803     0x4  Code  Lc  mndoswff.o [1]
dofb_1                  0x20003370    0xc0  Data  Gb  instance.o [1]
dofb_1_channels         0x080855f4    0x18  Data  Gb  instance.o [1]
dofb_1_dft              0x080855a4    0x50  Data  Gb  instance.o [1]
dofb_2                  0x20003430    0xc0  Data  Gb  instance.o [1]
dofb_2_channels         0x0808565c    0x18  Data  Gb  instance.o [1]
dofb_2_dft              0x0808560c    0x50  Data  Gb  instance.o [1]
dofb_object             0x080844b4    0x34  Data  Lc  dofb.o [1]
dofb_object_alert_key   0x08084584    0x34  Data  Lc  dofb.o [1]
dofb_object_bkcal_out_d
                        0x080848f8    0x34  Data  Lc  dofb.o [1]
dofb_object_block_alm   0x080849fc    0x34  Data  Lc  dofb.o [1]
dofb_object_block_err   0x080845ec    0x34  Data  Lc  dofb.o [1]
dofb_object_block_err_desc_1
                        0x08084a30    0x34  Data  Lc  dofb.o [1]
dofb_object_cas_in_d    0x08084828    0x34  Data  Lc  dofb.o [1]
dofb_object_channel     0x0808485c    0x34  Data  Lc  dofb.o [1]
dofb_object_fstate_time
                        0x08084890    0x34  Data  Lc  dofb.o [1]
dofb_object_fstate_val_d
                        0x080848c4    0x34  Data  Lc  dofb.o [1]
dofb_object_grant_deny  0x08084758    0x34  Data  Lc  dofb.o [1]
dofb_object_io_opts     0x0808478c    0x34  Data  Lc  dofb.o [1]
dofb_object_mode_blk    0x080845b8    0x34  Data  Lc  dofb.o [1]
dofb_object_out_d       0x08084688    0x34  Data  Lc  dofb.o [1]
dofb_object_pv_d        0x08084620    0x34  Data  Lc  dofb.o [1]
dofb_object_pv_state    0x080846f0    0x34  Data  Lc  dofb.o [1]
dofb_object_rcas_in_d   0x0808492c    0x34  Data  Lc  dofb.o [1]
dofb_object_rcas_out_d  0x08084994    0x34  Data  Lc  dofb.o [1]
dofb_object_readback_d  0x080847f4    0x34  Data  Lc  dofb.o [1]
dofb_object_shed_opt    0x08084960    0x34  Data  Lc  dofb.o [1]
dofb_object_simulate_d  0x080846bc    0x34  Data  Lc  dofb.o [1]
dofb_object_sp_d        0x08084654    0x34  Data  Lc  dofb.o [1]
dofb_object_st_rev      0x080844e8    0x34  Data  Lc  dofb.o [1]
dofb_object_status_opts
                        0x080847c0    0x34  Data  Lc  dofb.o [1]
dofb_object_strategy    0x08084550    0x34  Data  Lc  dofb.o [1]
dofb_object_tag_desc    0x0808451c    0x34  Data  Lc  dofb.o [1]
dofb_object_update_evt  0x080849c8    0x34  Data  Lc  dofb.o [1]
dofb_object_view_1_1    0x08084a64    0x78  Data  Gb  dofb.o [1]
dofb_object_view_2_1    0x08084adc    0x78  Data  Gb  dofb.o [1]
dofb_object_view_3_1    0x08084b54    0x78  Data  Gb  dofb.o [1]
dofb_object_view_4_1    0x08084bcc    0x78  Data  Gb  dofb.o [1]
dofb_object_xd_state    0x08084724    0x34  Data  Lc  dofb.o [1]
dofb_param_dir          0x08084364   0x150  Data  Gb  dofb.o [1]
domainHdr               0x08092fce    0x28  Data  Gb  appl_dlh.o [1]
dosw_FillDoSwData       0x0809f883    0x40  Code  Lc  mndoswff.o [1]
dosw_Populate           0x0809f8c3    0x3c  Code  Lc  mndoswff.o [1]
dosw_map                0x0809fa70    0x70  Data  Lc  mndoswff.o [1]
dt1_las_stat_change     0x2000af1c     0xc  Data  Gb  dll_bas.o [3]
dt1_ll_change           0x2000ae94    0x88  Data  Gb  dll_bas.o [3]
dt1_ll_change_buf       0x2000afb8   0x100  Data  Gb  dll_bas.o [3]
dt1_ll_change_get       0x20012abc     0x1  Data  Gb  dll_bas.o [3]
dt1_ll_change_put       0x20012abd     0x1  Data  Gb  dll_bas.o [3]
dt1_ll_change_size      0x20012aa2     0x2  Data  Gb  dll_bas.o [3]
dt1_ll_detail_rcv       0x2000af28    0x48  Data  Gb  dll_bas.o [3]
dt1_ll_detail_snd       0x2000af70    0x48  Data  Gb  dll_bas.o [3]
dt1_node_act            0x2000ae84    0x10  Data  Gb  dll_bas.o [3]
dt1llreqFrame           0x2000d08c     0x8  Data  Lc  dll_las.o [3]
dt1llreqMessageBlock    0x2000d1d8    0x20  Data  Lc  dll_las.o [3]
dt1rlreqFrame           0x2000d094     0x8  Data  Lc  dll_las.o [3]
dt1rlreqMessageBlock    0x2000d1f8    0x20  Data  Lc  dll_las.o [3]
dtb_sta_time            0x2000d0a0     0x4  Data  Lc  dll_las.o [3]
dwnld_handle_data       0x0809c899    0x40  Code  Gb  mn_fwdl.o [1]
dyn_param_list          0x0809d818    0x10  Data  Lc  appl_ptb.o [1]
ec_param                0x200129dc    0x18  Data  Lc  faldll.o [3]
eep_AcquireLocalMutex   0x08098241    0x18  Code  Lc  eep_if.o [1]
eep_AcquireMutex        0x08098225    0x14  Code  Gb  eep_if.o [1]
eep_CreateMutex         0x08098209    0x1c  Code  Gb  eep_if.o [1]
eep_GetBlockInfo        0x08098193    0x3a  Code  Gb  eep_if.o [1]
eep_GetDataAddr         0x080980f1    0x14  Code  Lc  eep_if.o [1]
eep_GetInfo             0x08098177    0x1c  Code  Gb  eep_if.o [1]
eep_ReadFB              0x08098d4f    0xaa  Code  Gb  eep_if.o [1]
eep_ReleaseMutex        0x08098239     0x8  Code  Gb  eep_if.o [1]
eep_SaveFB              0x08098c59    0xf0  Code  Gb  eep_if.o [1]
eep_TestControlObjects  0x08098115    0x36  Code  Lc  eep_if.o [1]
eep_WatchdogProxy       0x08098261    0x2c  Code  Gb  eep_if.o [1]
eep_blk23_transfer      0x0809abd1    0x62  Code  Gb  eep_blk3.o [1]
eep_blk2_apply          0x0809ab2b    0x24  Code  Gb  eep_blk2.o [1]
eep_blk2_check          0x0809ab4f    0x52  Code  Gb  eep_blk2.o [1]
eep_blk2_store          0x0809aa99    0x50  Code  Gb  eep_blk2.o [1]
eep_blk2_store_default  0x0809aae9    0x42  Code  Gb  eep_blk2.o [1]
eep_blk32_transfer      0x0809ac33    0x60  Code  Gb  eep_blk3.o [1]
eep_blk3_apply          0x0809acdf    0x24  Code  Gb  eep_blk3.o [1]
eep_blk3_check          0x0809ad03    0x22  Code  Gb  eep_blk3.o [1]
eep_blk3_get            0x0809ad25    0x30  Code  Gb  eep_blk3.o [1]
eep_blk3_store_default  0x0809ac9d    0x42  Code  Gb  eep_blk3.o [1]
eep_build_dscr          0x08098b69    0x42  Code  Lc  eep_if.o [1]
eep_compute_description
                        0x0809832b    0x54  Code  Lc  eep_if.o [1]
eep_config_act          0x080988d5    0xbc  Code  Gb  eep_if.o [1]
eep_config_change       0x0809885f    0x70  Code  Gb  eep_if.o [1]
eep_dscr                0x20004d70   0x140  Data  Lc  eep_if.o [1]
eep_get_stamp           0x08098af1     0x6  Code  Gb  eep_if.o [1]
eep_info                0x20004eb0     0xc  Data  Lc  eep_if.o [1]
eep_init                0x0809828d    0x9e  Code  Gb  eep_if.o [1]
eep_init_blocks         0x08098767    0xa4  Code  Lc  eep_if.o [1]
eep_init_descriptions   0x08098155    0x22  Code  Lc  eep_if.o [1]
eep_mb                  0x20002144   0x168  Data  Lc  osif_cfg.o [1]
eep_offset              0x2000190e     0x2  Data  Lc  eep_if.o [1]
eep_param_check         0x08098bab    0x2a  Code  Lc  eep_if.o [1]
eep_provide_block       0x0809880b    0x54  Code  Gb  eep_if.o [1]
eep_put                 0x08098bd5    0x26  Code  Gb  eep_if.o [1]
eep_ram_image           0x60000000  0x7fec  Data  Lc  eep_if.o [1]
eep_read_block          0x080981e7    0x18  Code  Gb  eep_if.o [1]
eep_read_catalog_helper
                        0x08098477    0x7e  Code  Lc  eep_if.o [1]
eep_readblock_helper    0x0809837f    0x58  Code  Lc  eep_if.o [1]
eep_repair_count        0x200011e0     0x2  Data  Gb  eep_if.o [1]
eep_repair_failed       0x200011e2     0x2  Data  Gb  eep_if.o [1]
eep_save_fb_nv          0x08098c03    0x4a  Code  Lc  eep_if.o [1]
eep_stack               0x20006320   0x600  Data  Lc  osif_cfg.o [1]
eep_start_write         0x08098991    0x20  Code  Gb  eep_if.o [1]
eep_state               0x200011a4    0x38  Data  Lc  eep_if.o [1]
eep_task_main           0x08098af9    0x70  Code  Lc  eep_if.o [1]
eep_write               0x080989b1    0x34  Code  Gb  eep_if.o [1]
eep_write_block         0x080981cd    0x1a  Code  Gb  eep_if.o [1]
eep_write_wrapper       0x080989e5   0x10c  Code  Lc  eep_if.o [1]
eep_writeblock_helper   0x080983d7    0x38  Code  Lc  eep_if.o [1]
eep_writecat_helper     0x08098569    0x92  Code  Lc  eep_if.o [1]
eeptest_GetStats        0x08098729    0x1e  Code  Gb  eep_if.o [1]
eeptest_WriteAllBlocks  0x08098747    0x20  Code  Gb  eep_if.o [1]
eeptest_catr            0x080984fb    0x6e  Code  Lc  eep_if.o [1]
eeptest_catw            0x080985fb    0x1e  Code  Lc  eep_if.o [1]
eeptest_eepblock        0x08098631    0xf8  Code  Lc  eep_if.o [1]
eeptest_eepblock_w      0x08098449    0x2e  Code  Lc  eep_if.o [1]
error_IsFault           0x08097951    0x32  Code  Gb  mn_flash_selftest.o [1]
error_SetFault          0x08097913    0x3e  Code  Gb  mn_flash_selftest.o [1]
event_count_max         0x2000743c     0x1  Data  Gb  fbs_alt.o [5]
exec_arithm_funct       0x080a76dd   0x572  Code  Lc  ffbl_ar.o [1]
exit                    0x080ac591     0x4  Code  Gb  exit.o [4]
extra_nv_block_list     0x20007b04   0x110  Data  Lc  fbs_nv.o [5]
extra_nv_ram_has_changed
                        0x20007ad8     0x1  Data  Lc  fbs_nv.o [5]
extra_nv_ram_update_called
                        0x20007b00     0x4  Data  Lc  fbs_nv.o [5]
fCrc                    0x200024e4     0x2  Data  Lc  stm_flash.o [1]
f_tim_028               0x080ad3e1    0x1c  Code  Gb  tmp_lo.o [3]
f_tim_064               0x080ad335    0x9c  Code  Gb  tmp_lo.o [3]
f_xmt_037               0x080ad28d    0xa8  Code  Gb  tmp_lo.o [3]
f_xmt_043               0x080ad1d1    0xbc  Code  Gb  tmp_lo.o [3]
fal_base_routine        0x080bd169   0x12a  Code  Gb  faltsk.o [3]
fal_init                0x080bd13d    0x28  Code  Gb  faltsk.o [3]
fal_load_vcr_defaults   0x080bd577    0x14  Code  Gb  falvcr.o [3]
fal_proc_subscr_irq     0x080bd363    0x28  Code  Gb  faltsk.o [3]
fal_que                 0x2000d268     0x8  Data  Lc  faltsk.o [3]
fal_start               0x080bd165     0x4  Code  Gb  faltsk.o [3]
falabt_close_conn       0x080bebdf    0x3e  Code  Lc  falabt.o [3]
falabt_disable_conn     0x080be83b    0xb2  Code  Gb  falabt.o [3]
falabt_disable_mgmt_conn
                        0x080be805    0x36  Code  Gb  falabt.o [3]
falabt_disable_w4_rcv_que
                        0x080be8ed    0x26  Code  Gb  falabt.o [3]
falabt_dll_disconnect   0x080be919    0x26  Code  Gb  falabt.o [3]
falabt_dll_unexp_evt    0x080be93f    0x30  Code  Gb  falabt.o [3]
falabt_handle_disconnect_con
                        0x080beb8f    0x50  Code  Lc  falabt.o [3]
falabt_handle_disconnect_ind
                        0x080beaeb    0xa4  Code  Gb  falabt.o [3]
falabt_handle_fal_abort
                        0x080be9d5   0x116  Code  Gb  falabt.o [3]
falabt_handle_usr_abort
                        0x080be96f    0x66  Code  Gb  falabt.o [3]
falass_dealloc_srv_tbl  0x080bec7f    0x5e  Code  Gb  falass.o [3]
falass_enable_conn      0x080bec1d    0x3a  Code  Gb  falass.o [3]
falass_gen_init_con     0x080bec67    0x18  Code  Gb  falass.o [3]
falass_usr_ass          0x080bec57    0x10  Code  Gb  falass.o [3]
falaux_dll_null         0x080c05bd     0x2  Code  Gb  falaux.o [3]
falaux_usr_null         0x080c05bb     0x2  Code  Gb  falaux.o [3]
faldll_check_ec         0x080bee9b    0x8a  Code  Gb  faldll.o [3]
faldll_check_peer_dt    0x080bf3fb    0x3a  Code  Gb  faldll.o [3]
faldll_conn_revision    0x080bef25    0x28  Code  Gb  faldll.o [3]
faldll_dc_req           0x080bf341    0xba  Code  Gb  faldll.o [3]
faldll_decode_ec        0x080bef4d    0x98  Code  Lc  faldll.o [3]
faldll_dll_open         0x080beced     0x4  Code  Gb  faldll.o [3]
faldll_do_ras           0x080becf5    0x46  Code  Gb  faldll.o [3]
faldll_init_dll_addr_descr
                        0x080bee47    0x54  Code  Gb  faldll.o [3]
faldll_peer_ec          0x080bed3b   0x10c  Code  Gb  faldll.o [3]
faldll_prep_srv_dt      0x080bf435    0x4e  Code  Gb  faldll.o [3]
faldll_pub_ec_req       0x080befe5   0x1c4  Code  Gb  faldll.o [3]
faldll_setup_peer_dyn   0x080bf295    0x9c  Code  Gb  faldll.o [3]
faldll_setup_sub_dyn    0x080bf331     0xa  Code  Gb  faldll.o [3]
faldll_sub_ec_req       0x080bf1a9    0xec  Code  Gb  faldll.o [3]
faldll_unitdata         0x080bf483    0x58  Code  Gb  faldll.o [3]
faldll_usr_open         0x080becf1     0x4  Code  Gb  faldll.o [3]
falfms_build_neg_res    0x080bfa55    0x10  Code  Lc  falfms.o [3]
falfms_check_evt_ack_ind
                        0x080bf8cb    0x4e  Code  Lc  falfms.o [3]
falfms_check_get_od_ind
                        0x080bf867    0x64  Code  Lc  falfms.o [3]
falfms_check_read_ind   0x080bf759    0x6c  Code  Lc  falfms.o [3]
falfms_check_write_ind  0x080bf7c5    0xa2  Code  Lc  falfms.o [3]
falfms_decode_ass_ind   0x080bf50f    0xe8  Code  Gb  falfms.o [3]
falfms_decode_dtc_ind   0x080bf5f7   0x162  Code  Gb  falfms.o [3]
falfms_decode_dwnld_ind
                        0x080bf919    0x9c  Code  Lc  falfms.o [3]
falfms_decode_info_ind  0x080bf9b5    0xa0  Code  Gb  falfms.o [3]
falfms_gen_dtc_res      0x080bf4db    0x34  Code  Gb  falfms.o [3]
falmsg_fal_receive      0x080bd333    0x30  Code  Lc  faltsk.o [3]
falmsg_usr_to_fal       0x080bd305    0x2e  Code  Gb  faltsk.o [3]
falopn_usr_open         0x080c05bf    0x1e  Code  Gb  falopn.o [3]
falpub_dll_ass          0x080c0623    0x3c  Code  Gb  falpub.o [3]
falpub_dll_open         0x080c065f    0x62  Code  Gb  falpub.o [3]
falpub_usr_closed       0x080c05dd    0x46  Code  Gb  falpub.o [3]
falsnd_dll_disconnect   0x080c0777    0x22  Code  Gb  falsnd.o [3]
falsnd_dll_open         0x080c073d    0x3a  Code  Gb  falsnd.o [3]
falsnd_usr_closed       0x080c06c1    0x26  Code  Gb  falsnd.o [3]
falsnd_usr_disconnect   0x080c0735     0x8  Code  Gb  falsnd.o [3]
falsnd_usr_open         0x080c06e7    0x4e  Code  Gb  falsnd.o [3]
falsrv_dll_ass_w4_ack   0x080c042d    0x60  Code  Gb  falsrv.o [3]
falsrv_dll_ass_w4_res   0x080c03f9    0x34  Code  Gb  falsrv.o [3]
falsrv_dll_closed       0x080c02bf   0x134  Code  Gb  falsrv.o [3]
falsrv_dll_open         0x080c048d   0x12e  Code  Gb  falsrv.o [3]
falsrv_usr_ass_w4_res   0x080c01e5    0x8c  Code  Gb  falsrv.o [3]
falsrv_usr_open         0x080c0271    0x4e  Code  Gb  falsrv.o [3]
falsub_dll_ass          0x080be6ef    0x7a  Code  Gb  falsub.o [3]
falsub_dll_open         0x080be769    0x9a  Code  Gb  falsub.o [3]
falsub_usr_closed       0x080be6a5    0x4a  Code  Gb  falsub.o [3]
faltim_check_next       0x080be49d    0x2c  Code  Lc  faltim.o [3]
faltim_do_abort         0x080be461    0x3c  Code  Lc  faltim.o [3]
faltim_get_timer        0x080be633    0x5a  Code  Lc  faltim.o [3]
faltim_init             0x080be20d    0x50  Code  Gb  faltim.o [3]
faltim_monitor_abort    0x080be387    0xda  Code  Gb  faltim.o [3]
faltim_put_timer        0x080be5d7    0x5c  Code  Lc  faltim.o [3]
faltim_restart_res_act  0x080be517    0x28  Code  Gb  faltim.o [3]
faltim_start_req_timer  0x080be53f    0x68  Code  Gb  faltim.o [3]
faltim_start_res_act    0x080be4c9    0x2a  Code  Gb  faltim.o [3]
faltim_start_sm_monitor
                        0x080be35f    0x14  Code  Gb  faltim.o [3]
faltim_stop_req_timer   0x080be5a7    0x30  Code  Gb  faltim.o [3]
faltim_stop_res_act     0x080be4f3    0x24  Code  Gb  faltim.o [3]
faltim_stop_sm_monitor  0x080be373    0x14  Code  Gb  faltim.o [3]
faltim_tick             0x080be25d   0x102  Code  Gb  faltim.o [3]
faltsk_check_evt        0x080bd2c9    0x3c  Code  Lc  faltsk.o [3]
faltsk_dll_event        0x080bd4d4    0x78  Data  Lc  faltsk.o [3]
faltsk_handle_vcrl_upd  0x080bd3b3    0x98  Code  Lc  faltsk.o [3]
faltsk_rcv_que_is_empty
                        0x080bd38b    0x28  Code  Lc  faltsk.o [3]
faltsk_stop_vcr_disable
                        0x080bd2a1    0x28  Code  Gb  faltsk.o [3]
faltsk_upd_vcr_list     0x080bd293     0xe  Code  Gb  faltsk.o [3]
faltsk_usr_event        0x080bd45c    0x78  Data  Lc  faltsk.o [3]
faltsk_vcr_upd          0x2000d220    0x48  Data  Lc  faltsk.o [3]
falvcr_activate_new_vcr
                        0x080be0bf    0x5e  Code  Lc  falvcr.o [3]
falvcr_alloc_msg        0x080be1b1    0x36  Code  Lc  falvcr.o [3]
falvcr_char             0x20010f94     0x8  Data  Gb  falvcr.o [3]
falvcr_check_dll_addr   0x080bdb39    0x94  Code  Lc  falvcr.o [3]
falvcr_check_dll_sdap   0x080bdc17    0x72  Code  Lc  falvcr.o [3]
falvcr_check_exist_dll_addr
                        0x080bdbcd    0x4a  Code  Lc  falvcr.o [3]
falvcr_check_feat_and_ctr
                        0x080bdc89    0xfe  Code  Lc  falvcr.o [3]
falvcr_delete_vcr_entries
                        0x20010f9f     0x1  Data  Lc  falvcr.o [3]
falvcr_delete_vcr_entry
                        0x080be17b    0x36  Code  Lc  falvcr.o [3]
falvcr_disable_start_vcr
                        0x20010f9e     0x1  Data  Lc  falvcr.o [3]
falvcr_disable_vcr_list
                        0x080bd6b9    0x5a  Code  Gb  falvcr.o [3]
falvcr_enable_vcr_list  0x080bd687    0x32  Code  Gb  falvcr.o [3]
falvcr_free_vcr_mem     0x080bddbb    0x7a  Code  Lc  falvcr.o [3]
falvcr_get_dyn_entry    0x080bd889    0x3a  Code  Gb  falvcr.o [3]
falvcr_get_list_of_vcr  0x080bd99f    0x38  Code  Gb  falvcr.o [3]
falvcr_get_stat_entry   0x080bd86d    0x1c  Code  Gb  falvcr.o [3]
falvcr_get_vcr_characteristics
                        0x080bd8c3     0x6  Code  Gb  falvcr.o [3]
falvcr_init             0x080bd54d    0x2a  Code  Gb  falvcr.o [3]
falvcr_init_vcr_entry   0x080bd9d7    0xf0  Code  Lc  falvcr.o [3]
falvcr_mem_for_vcr_entry
                        0x080bde49   0x1a0  Code  Lc  falvcr.o [3]
falvcr_no_of_vcr_to_close
                        0x20010fa0     0x1  Data  Lc  falvcr.o [3]
falvcr_nv_data          0x20010fa4     0x4  Data  Lc  falvcr.o [3]
falvcr_pack_feat_supp   0x080bdb07    0x32  Code  Lc  falvcr.o [3]
falvcr_replace_entry    0x080bd717     0xc  Code  Gb  falvcr.o [3]
falvcr_reset_hdr        0x080bde35    0x14  Code  Lc  falvcr.o [3]
falvcr_return_from_store
                        0x080bd95b    0x44  Code  Lc  falvcr.o [3]
falvcr_set_first_unconf_entry
                        0x080bdd87    0x34  Code  Lc  falvcr.o [3]
falvcr_start            0x080bd58b    0xfc  Code  Gb  falvcr.o [3]
falvcr_stop_vcr_disable
                        0x080bd713     0x4  Code  Gb  falvcr.o [3]
falvcr_store_new_entry_tmp
                        0x080bd723   0x14a  Code  Gb  falvcr.o [3]
falvcr_store_new_vcr    0x080bdfe9    0xd6  Code  Lc  falvcr.o [3]
falvcr_terminate_vcr_disable
                        0x080be11d    0x5e  Code  Lc  falvcr.o [3]
falvcr_unpack_feat_supp
                        0x080bdac7    0x40  Code  Lc  falvcr.o [3]
falvcr_vcr_is_closed    0x080bd8c9    0x92  Code  Gb  falvcr.o [3]
fb1_stack               0x20006920   0x300  Data  Lc  osif_cfg.o [1]
fb_data_structs         0x080afaf8   0x820  Data  Gb  fbs_acc.o [5]
fb_ext_data_structs     0x0808f3ac  0x1040  Data  Gb  spec_ds.o [1]
fb_hdr_changed          0x20012aad     0x1  Data  Lc  fbs_scd.o [5]
fb_link                 0x200085ac     0x4  Data  Gb  fbs_init.o [5]
fb_link_desc            0x200085b0     0x4  Data  Gb  fbs_init.o [5]
fb_mb                   0x200022ac    0x78  Data  Lc  osif_cfg.o [1]
fb_start_changed        0x20012aac     0x1  Data  Lc  fbs_scd.o [5]
fb_start_list           0x20007fdc   0x158  Data  Gb  sm.o [3]
fb_time                 0x2000d218     0x8  Data  Lc  dll_las.o [3]
fb_trend_cfg            0x200085b8     0x4  Data  Gb  fbs_init.o [5]
fb_trend_desc           0x20009dc8     0x4  Data  Gb  fbs_trd.o [5]
fbc_interrupt_handler   0x080ac37d    0x1a  Code  Lc  hw_intr.o [1]
fbif_block_descr        0x08084cc4   0x550  Data  Gb  fbif_dsc.o [1]
fbif_dictionary         0x08085214    0xb4  Data  Gb  fbif_dsc.o [1]
fblk_res_get_channel_no
                        0x080b372b     0x2  Code  Lc  fbs_fbif.o [5]
fbs_abt_ind             0x080b0e7f    0xc8  Code  Gb  fbs_run.o [5]
fbs_ack_evn_ind         0x080ae679    0x54  Code  Gb  fbs_alt.o [5]
fbs_activate_block      0x080b2567   0x16a  Code  Gb  fbs_init.o [5]
fbs_alert_discrete_idx  0x20007440     0x2  Data  Gb  fbs_alt.o [5]
fbs_alert_event_idx     0x2000743e     0x2  Data  Gb  fbs_alt.o [5]
fbs_alert_fd_idx        0x20007444     0x2  Data  Gb  fbs_alt.o [5]
fbs_alert_float_idx     0x20007442     0x2  Data  Gb  fbs_alt.o [5]
fbs_alert_notify        0x080adf7d   0x2d8  Code  Gb  fbs_alt.o [5]
fbs_apply_for_nv_ram    0x080b399b    0xca  Code  Gb  fbs_nv.o [5]
fbs_background          0x080b06bb    0xa8  Code  Gb  fbs_run.o [5]
fbs_background_called   0x20007a64     0x2  Data  Lc  fbs_run.o [5]
fbs_blk_desc            0x200074c8   0x300  Data  Gb  fbs_fbif.o [5]
fbs_blk_table           0x200074c4     0x4  Data  Gb  fbs_fbif.o [5]
fbs_block_list          0x200077e0   0x280  Data  Gb  fbs_fbif.o [5]
fbs_cfg                 0x200085a8     0x4  Data  Gb  fbs_init.o [5]
fbs_cfg_error           0x20007ade     0x2  Data  Gb  fbs_nv.o [5]
fbs_check_nv_ram        0x080b38c1    0xda  Code  Gb  fbs_nv.o [5]
fbs_conf_timer_ind      0x080ae7d5    0x1e  Code  Lc  fbs_alt.o [5]
fbs_confirm_time        0x20007448     0x4  Data  Gb  fbs_alt.o [5]
fbs_device_has_field_diagnostic
                        0x080b2473     0x8  Code  Gb  fbs_init.o [5]
fbs_device_has_float_alarms
                        0x080b246b     0x8  Code  Gb  fbs_init.o [5]
fbs_eep                 0x20007ae0    0x10  Data  Gb  fbs_nv.o [5]
fbs_eep_size            0x200085cc     0x8  Data  Gb  fbs_init.o [5]
fbs_exec_reset_blocks   0x20008571     0x1  Data  Gb  fbs_init.o [5]
fbs_exec_restart_with_defaults
                        0x20008570     0x1  Data  Gb  fbs_init.o [5]
fbs_extra_nv_ram        0x20007af4     0x4  Data  Lc  fbs_nv.o [5]
fbs_extra_nv_ram_allocated
                        0x20007ad7     0x1  Data  Lc  fbs_nv.o [5]
fbs_extra_nv_ram_cycle_time
                        0x20007af8     0x4  Data  Lc  fbs_nv.o [5]
fbs_extra_nv_ram_list   0x20007d24    0x40  Data  Lc  fbs_nv.o [5]
fbs_extra_nv_ram_size   0x20007ad6     0x1  Data  Lc  fbs_nv.o [5]
fbs_fbif_init           0x080b35fd    0x2c  Code  Gb  fbs_fbif.o [5]
fbs_fbif_init_blk_table
                        0x080b3665    0x4a  Code  Gb  fbs_fbif.o [5]
fbs_get_block_inst      0x080b379d    0x2c  Code  Gb  fbs_fbif.o [5]
fbs_get_block_param     0x080aebe9    0x70  Code  Gb  fbs_blk.o [5]
fbs_get_obj_desc        0x080af42f    0x88  Code  Gb  fbs_vfd.o [5]
fbs_incr_st_rev         0x080b41c5    0xd0  Code  Gb  fbs_nv.o [5]
fbs_ind_desc            0x20008580    0x28  Data  Gb  fbs_init.o [5]
fbs_info_rpt_ind        0x080b0a55   0x102  Code  Gb  fbs_run.o [5]
fbs_init                0x080b2401    0x4a  Code  Gb  fbs_init.o [5]
fbs_init_activate_blocks
                        0x080b24d9    0x8e  Code  Lc  fbs_init.o [5]
fbs_init_alarm_desc     0x080add83    0x88  Code  Gb  fbs_alt.o [5]
fbs_init_con            0x080b0f47   0x170  Code  Gb  fbs_run.o [5]
fbs_init_input_desc     0x080b26d1    0x48  Code  Lc  fbs_init.o [5]
fbs_init_links          0x080b275f    0x5c  Code  Lc  fbs_init.o [5]
fbs_init_output_desc    0x080b2719    0x46  Code  Lc  fbs_init.o [5]
fbs_init_start          0x080b247b    0x5e  Code  Gb  fbs_init.o [5]
fbs_lim_notify          0x2000743a     0x1  Data  Gb  fbs_alt.o [5]
fbs_link_transducer_block
                        0x080b372d    0x70  Code  Gb  fbs_fbif.o [5]
fbs_links_online        0x080b2253    0x3e  Code  Gb  fbs_run.o [5]
fbs_load_fbif_dict      0x080b3629    0x3c  Code  Gb  fbs_fbif.o [5]
fbs_load_link_defaults  0x080b244b     0xe  Code  Gb  fbs_init.o [5]
fbs_load_mvc_defaults   0x080b4953    0x42  Code  Gb  fbs_mvc.o [5]
fbs_load_trend_defaults
                        0x080b2459    0x12  Code  Gb  fbs_init.o [5]
fbs_local_update        0x080b09bb    0x9a  Code  Gb  fbs_run.o [5]
fbs_mbit_alarm_supported
                        0x20007439     0x1  Data  Gb  fbs_alt.o [5]
fbs_mvc_eep_size        0x20009dce     0x2  Data  Lc  fbs_mvc.o [5]
fbs_new_extra_nv_ram    0x20007ad5     0x1  Data  Lc  fbs_nv.o [5]
fbs_no_of_float_alarms  0x20007454     0x4  Data  Gb  fbs_alt.o [5]
fbs_nv_ram_cycle_time   0x20007af0     0x4  Data  Lc  fbs_nv.o [5]
fbs_read_fbl_data       0x080b0c99   0x124  Code  Lc  fbs_run.o [5]
fbs_read_ind            0x080b0b57    0x4c  Code  Gb  fbs_run.o [5]
fbs_read_var_list       0x080b0ba3    0xec  Code  Lc  fbs_run.o [5]
fbs_remove_link         0x080b2b75   0x1c6  Code  Gb  fbs_init.o [5]
fbs_reports_supported   0x20007438     0x1  Data  Gb  fbs_alt.o [5]
fbs_resb                0x200085bc    0x10  Data  Gb  fbs_init.o [5]
fbs_restart_with_defaults
                        0x080b37c9    0x14  Code  Gb  fbs_fbif.o [5]
fbs_restart_with_defaults_task
                        0x20008572     0x1  Data  Gb  fbs_init.o [5]
fbs_run_wait_for_appl_time_sync
                        0x20007a61     0x1  Data  Lc  fbs_run.o [5]
fbs_serial_number       0x200077c8    0x18  Data  Gb  fbs_fbif.o [5]
fbs_set_extra_nv_ram_cycle_time
                        0x080b3b3b    0x1a  Code  Gb  fbs_nv.o [5]
fbs_set_link            0x080b27bd   0x3b8  Code  Gb  fbs_init.o [5]
fbs_set_nv_ram_cycle_time
                        0x080b3b55    0x1a  Code  Gb  fbs_nv.o [5]
fbs_start               0x080b36af    0x7c  Code  Gb  fbs_fbif.o [5]
fbs_start_blocks        0x080b37dd    0x6a  Code  Lc  fbs_fbif.o [5]
fbs_state               0x200074bc     0x1  Data  Gb  fbs_fbif.o [5]
fbs_swap_bytes          0x080b2339    0x74  Code  Gb  fbs_run.o [5]
fbs_vl_elem_desc        0x200085d4    0x28  Data  Gb  fbs_init.o [5]
fbs_write_ind           0x080b0dbd    0x18  Code  Gb  fbs_run.o [5]
fbs_write_param         0x080b5ea1   0x2da  Code  Gb  fbs_rw.o [5]
fbs_write_param_loc     0x080b62e9   0x10e  Code  Gb  fbs_rw.o [5]
fbs_write_var_list      0x080b0dd5    0xaa  Code  Lc  fbs_run.o [5]
fbsacc_copy_and_swap    0x080afa29    0x92  Code  Gb  fbs_acc.o [5]
fbsacc_get_st_dt_length
                        0x080afacf    0x10  Code  Gb  fbs_acc.o [5]
fbsacc_get_struct_length
                        0x080afabb    0x14  Code  Gb  fbs_acc.o [5]
fbsacc_record_descr     0x080afa01    0x28  Code  Gb  fbs_acc.o [5]
fbsalt_add_alert_desc_wfconf
                        0x080ae8c9    0x48  Code  Lc  fbs_alt.o [5]
fbsalt_add_alert_desc_wfsend
                        0x080ae819    0xb0  Code  Lc  fbs_alt.o [5]
fbsalt_alert_is_reported
                        0x080ae58f    0xc2  Code  Lc  fbs_alt.o [5]
fbsalt_appl_time_available
                        0x2000743d     0x1  Data  Lc  fbs_alt.o [5]
fbsalt_background       0x080ade0b    0xf6  Code  Gb  fbs_alt.o [5]
fbsalt_build_alert      0x080ae255    0x6c  Code  Lc  fbs_alt.o [5]
fbsalt_build_discrete_alert
                        0x080ae2fb    0x5e  Code  Lc  fbs_alt.o [5]
fbsalt_build_event_alert
                        0x080ae359    0x16  Code  Lc  fbs_alt.o [5]
fbsalt_build_fd_alert   0x080ae36f    0x50  Code  Lc  fbs_alt.o [5]
fbsalt_build_float_alert
                        0x080ae2c1    0x3a  Code  Lc  fbs_alt.o [5]
fbsalt_calc_ram_size    0x080adccf    0x12  Code  Gb  fbs_alt.o [5]
fbsalt_clear_all_alerts
                        0x080adf01    0x7c  Code  Gb  fbs_alt.o [5]
fbsalt_get_active_alert_desc
                        0x080ae941    0x36  Code  Lc  fbs_alt.o [5]
fbsalt_get_alert_desc_wfconf
                        0x080ae9c1    0x48  Code  Lc  fbs_alt.o [5]
fbsalt_get_alert_desc_wfsend
                        0x080ae977    0x40  Code  Lc  fbs_alt.o [5]
fbsalt_get_free_alert_desc
                        0x080ae911    0x30  Code  Lc  fbs_alt.o [5]
fbsalt_init             0x080adcb1    0x1e  Code  Gb  fbs_alt.o [5]
fbsalt_remove_alert_desc
                        0x080aea0d    0x82  Code  Lc  fbs_alt.o [5]
fbsalt_reset_alert_desc
                        0x080ae7f3    0x26  Code  Lc  fbs_alt.o [5]
fbsalt_send_alert       0x080ae455   0x13a  Code  Lc  fbs_alt.o [5]
fbsalt_send_con         0x080ae6cd    0x56  Code  Gb  fbs_alt.o [5]
fbsalt_start            0x080adce1    0xa2  Code  Gb  fbs_alt.o [5]
fbsalt_update_alarm     0x080ae3bf    0x96  Code  Lc  fbs_alt.o [5]
fbsalt_update_appl_time
                        0x080ae723    0x9e  Code  Gb  fbs_alt.o [5]
fbsalt_update_mbit_alarm
                        0x080ae651    0x28  Code  Lc  fbs_alt.o [5]
fbsbgd_handle_block_list
                        0x080b0683    0x38  Code  Lc  fbs_run.o [5]
fbsblk_config_error     0x20012aaa     0x1  Data  Gb  fbs_blk.o [5]
fbsblk_convert_floats   0x080aeb11    0x58  Code  Gb  fbs_blk.o [5]
fbsblk_init             0x080aeb09     0x8  Code  Gb  fbs_blk.o [5]
fbsblk_init_instance_defaults
                        0x080aeb69    0x80  Code  Gb  fbs_blk.o [5]
fbsif_gen_abort_req     0x080b0549    0x2e  Code  Gb  fbs_if.o [5]
fbsif_gen_evn_notify    0x080b05d7    0x3e  Code  Gb  fbs_if.o [5]
fbsif_gen_info_rpt_req  0x080b0577    0x60  Code  Gb  fbs_if.o [5]
fbsif_gen_init_req      0x080b0517    0x32  Code  Gb  fbs_if.o [5]
fbsif_handle_response   0x080b0615    0x42  Code  Lc  fbs_if.o [5]
fbsif_req_res           0x20009d88    0x14  Data  Gb  fbs_if.o [5]
fbsmcv_handle_fb_scd_change
                        0x080b4a13    0x5c  Code  Gb  fbs_mvc.o [5]
fbsmcv_upd_fb_scd_list  0x080b4a6f    0xa6  Code  Lc  fbs_mvc.o [5]
fbsmvc_block_is_executed
                        0x080b532d    0x8a  Code  Gb  fbs_mvc.o [5]
fbsmvc_build_block_list
                        0x080b4b15    0xe4  Code  Lc  fbs_mvc.o [5]
fbsmvc_build_par_list   0x080b4bf9    0xfe  Code  Lc  fbs_mvc.o [5]
fbsmvc_calc_eep_size    0x080b491f    0x20  Code  Gb  fbs_mvc.o [5]
fbsmvc_calc_ram_size    0x080b493f    0x14  Code  Gb  fbs_mvc.o [5]
fbsmvc_check_input_param
                        0x080b5975    0x6c  Code  Gb  fbs_mvc.o [5]
fbsmvc_check_pub_rpt_mvc
                        0x080b57d7    0x3a  Code  Gb  fbs_mvc.o [5]
fbsmvc_check_sub_mvc    0x080b5819   0x158  Code  Gb  fbs_mvc.o [5]
fbsmvc_get_block_id     0x080b5247    0x32  Code  Lc  fbs_mvc.o [5]
fbsmvc_get_io_param     0x080b5279    0x70  Code  Lc  fbs_mvc.o [5]
fbsmvc_get_param_desc   0x080b52e9    0x44  Code  Lc  fbs_mvc.o [5]
fbsmvc_init             0x080b48fd    0x22  Code  Gb  fbs_mvc.o [5]
fbsmvc_init_mvc_objects
                        0x080b4995    0x7e  Code  Gb  fbs_mvc.o [5]
fbsmvc_locked           0x20009dcc     0x1  Data  Lc  fbs_mvc.o [5]
fbsmvc_no_of_fblks      0x20009dcd     0x1  Data  Lc  fbs_mvc.o [5]
fbsmvc_read_mvc_obj     0x080b4e87    0x6c  Code  Gb  fbs_mvc.o [5]
fbsmvc_read_mvc_rev_no  0x080b4ef3    0x60  Code  Gb  fbs_mvc.o [5]
fbsmvc_remove_mvc_pub_rpt_link
                        0x080b5a59    0x52  Code  Gb  fbs_mvc.o [5]
fbsmvc_remove_mvc_sub_link
                        0x080b5ab1    0x64  Code  Gb  fbs_mvc.o [5]
fbsmvc_send_mvc         0x080b53b7    0xbc  Code  Gb  fbs_mvc.o [5]
fbsmvc_send_pub_mvc     0x080b5473    0xda  Code  Lc  fbs_mvc.o [5]
fbsmvc_send_rpt_mvc     0x080b5559   0x16e  Code  Lc  fbs_mvc.o [5]
fbsmvc_set_mvc_pub_rpt_link
                        0x080b59e1    0x4c  Code  Gb  fbs_mvc.o [5]
fbsmvc_set_mvc_sub_link
                        0x080b5a2d    0x28  Code  Gb  fbs_mvc.o [5]
fbsmvc_subscribe        0x080b56d1   0x106  Code  Gb  fbs_mvc.o [5]
fbsmvc_upd_mvc_desc     0x080b4cf7   0x190  Code  Lc  fbs_mvc.o [5]
fbsmvc_write_mvc_obj    0x080b4f53   0x2f4  Code  Gb  fbs_mvc.o [5]
fbsnv_background        0x080b42bd    0x5a  Code  Gb  fbs_nv.o [5]
fbsnv_calc_nv_eep_size  0x080b3d11    0x4a  Code  Lc  fbs_nv.o [5]
fbsnv_exchange_extra_non_vol_block
                        0x080b46f3    0x6a  Code  Lc  fbs_nv.o [5]
fbsnv_exchange_non_vol_block
                        0x080b4685    0x6e  Code  Lc  fbs_nv.o [5]
fbsnv_get_blk_table     0x080b3a65    0x10  Code  Gb  fbs_nv.o [5]
fbsnv_get_extra_nv_block
                        0x080b3c55    0xbc  Code  Gb  fbs_nv.o [5]
fbsnv_get_fbs_config    0x080b3a75    0xc6  Code  Gb  fbs_nv.o [5]
fbsnv_get_non_vol_block
                        0x080b3bb3    0xa2  Code  Gb  fbs_nv.o [5]
fbsnv_get_nv_state      0x080b4785    0x3c  Code  Lc  fbs_nv.o [5]
fbsnv_get_static_blocks
                        0x080b3b6f    0x44  Code  Gb  fbs_nv.o [5]
fbsnv_init              0x080b3855    0x6c  Code  Gb  fbs_nv.o [5]
fbsnv_new_cfg           0x20007ad4     0x1  Data  Gb  fbs_nv.o [5]
fbsnv_read_extra_nv_block
                        0x080b4295    0x28  Code  Gb  fbs_nv.o [5]
fbsnv_reset_extra_nv_block
                        0x080b4017    0x5e  Code  Gb  fbs_nv.o [5]
fbsnv_set_extra_non_vol_block_defaults
                        0x080b4651    0x34  Code  Lc  fbs_nv.o [5]
fbsnv_set_non_vol_block_defaults
                        0x080b4585    0xcc  Code  Lc  fbs_nv.o [5]
fbsnv_start_block       0x080b3d5b   0x2bc  Code  Gb  fbs_nv.o [5]
fbsnv_store_non_volatile_param
                        0x080b4139    0x8c  Code  Gb  fbs_nv.o [5]
fbsnv_store_static_param
                        0x080b4075    0xc4  Code  Gb  fbs_nv.o [5]
fbsnv_upd_extra_nv_block
                        0x080b4485    0xfa  Code  Lc  fbs_nv.o [5]
fbsnv_upd_non_vol_block
                        0x080b4329   0x152  Code  Lc  fbs_nv.o [5]
fbsod_build_neg_res     0x080b35bf    0x2a  Code  Lc  fbs_od.o [5]
fbsod_encode_access     0x080b3463    0x12  Code  Lc  fbs_od.o [5]
fbsod_encode_array      0x080b32b7    0x84  Code  Lc  fbs_od.o [5]
fbsod_encode_dt         0x080b31eb    0x14  Code  Lc  fbs_od.o [5]
fbsod_encode_dt_sd      0x080b31ff    0x38  Code  Lc  fbs_od.o [5]
fbsod_encode_evt        0x080b316b    0x80  Code  Lc  fbs_od.o [5]
fbsod_encode_name       0x080b3475    0x2e  Code  Lc  fbs_od.o [5]
fbsod_encode_obj_descr  0x080b2f69    0xbe  Code  Lc  fbs_od.o [5]
fbsod_encode_obj_descr_hdr
                        0x080b34a3    0x56  Code  Lc  fbs_od.o [5]
fbsod_encode_od_hdr     0x080b30a7    0xc4  Code  Lc  fbs_od.o [5]
fbsod_encode_record     0x080b333b    0x68  Code  Lc  fbs_od.o [5]
fbsod_encode_svar       0x080b3237    0x80  Code  Lc  fbs_od.o [5]
fbsod_encode_vlist      0x080b33a3    0xc0  Code  Lc  fbs_od.o [5]
fbsod_get_init_pos_data
                        0x080b2d91    0x16  Code  Gb  fbs_od.o [5]
fbsod_get_od_len        0x080b3029    0x7e  Code  Lc  fbs_od.o [5]
fbsod_handle_get_od_ind
                        0x080b2de5   0x104  Code  Gb  fbs_od.o [5]
fbsod_handle_identify_ind
                        0x080b2dc3    0x22  Code  Gb  fbs_od.o [5]
fbsod_handle_status_ind
                        0x080b2da7    0x1c  Code  Gb  fbs_od.o [5]
fbsod_search_for_block  0x080b34f9    0xc6  Code  Lc  fbs_od.o [5]
fbsrun_build_neg_res    0x080b22f1    0x46  Code  Gb  fbs_run.o [5]
fbsrun_clear_all_links  0x080b2291    0x60  Code  Gb  fbs_run.o [5]
fbsrun_execute_fb       0x080b0763    0x10  Code  Lc  fbs_run.o [5]
fbsrun_init             0x080b0661    0x22  Code  Gb  fbs_run.o [5]
fbsrun_postprocess_fb   0x080b0851   0x16a  Code  Lc  fbs_run.o [5]
fbsrun_preprocess_fb    0x080b0813    0x3e  Code  Lc  fbs_run.o [5]
fbsrun_read_handler     0x080b1779    0x52  Code  Lc  fbs_run.o [5]
fbsrun_reset_varlist    0x080b0c8f     0xa  Code  Gb  fbs_run.o [5]
fbsrun_update_link_object
                        0x20007a60     0x1  Data  Lc  fbs_run.o [5]
fbsrw_get_block         0x080b63f7    0x3e  Code  Lc  fbs_rw.o [5]
fbsrw_update_event      0x080b65b3    0x8e  Code  Lc  fbs_rw.o [5]
fbsrw_write_mode        0x080b6541    0x72  Code  Lc  fbs_rw.o [5]
fbsrw_write_record      0x080b6459    0xe8  Code  Lc  fbs_rw.o [5]
fbsscd_check            0x080b47e3   0x100  Code  Gb  fbs_scd.o [5]
fbsscd_fb_hdr_changed   0x080b47db     0x8  Code  Gb  fbs_scd.o [5]
fbsscd_init             0x080b47c1    0x1a  Code  Gb  fbs_scd.o [5]
fbsscd_set_fb_start_changed
                        0x080b48e3     0x6  Code  Gb  fbs_scd.o [5]
fbstrd_block_is_written
                        0x080b5dd1    0x60  Code  Gb  fbs_trd.o [5]
fbstrd_clear_all_trends
                        0x080b5bcf    0x34  Code  Gb  fbs_trd.o [5]
fbstrd_init_trend       0x080b5c03    0xc2  Code  Lc  fbs_trd.o [5]
fbstrd_init_trends      0x080b5b25    0xaa  Code  Gb  fbs_trd.o [5]
fbstrd_sample           0x080b5cf5    0xdc  Code  Gb  fbs_trd.o [5]
fbstrd_trend_is_written
                        0x080b5e4d    0x24  Code  Gb  fbs_trd.o [5]
fbstrd_update_trend     0x080b5cc5    0x30  Code  Lc  fbs_trd.o [5]
fbsvfd_build_block_od   0x080af091   0x202  Code  Lc  fbs_vfd.o [5]
fbsvfd_build_mvc_var_list_od
                        0x080af293    0x5e  Code  Lc  fbs_vfd.o [5]
fbsvfd_build_od         0x080aeeab    0xb4  Code  Gb  fbs_vfd.o [5]
fbsvfd_build_od_header  0x080aef95    0x56  Code  Lc  fbs_vfd.o [5]
fbsvfd_build_od_obj_section
                        0x080aefeb    0xa6  Code  Lc  fbs_vfd.o [5]
fbsvfd_get_alert_obj_desc
                        0x080af6e1    0x7e  Code  Lc  fbs_vfd.o [5]
fbsvfd_get_ap_dir_desc  0x080af5a1    0x42  Code  Lc  fbs_vfd.o [5]
fbsvfd_get_blk_par_desc
                        0x080af88d    0x1a  Code  Lc  fbs_vfd.o [5]
fbsvfd_get_link_obj_desc
                        0x080af5e5     0x6  Code  Lc  fbs_vfd.o [5]
fbsvfd_get_mvc_list_obj_desc
                        0x080af8e5     0x8  Code  Lc  fbs_vfd.o [5]
fbsvfd_get_mvc_obj_desc
                        0x080af841    0x16  Code  Gb  fbs_vfd.o [5]
fbsvfd_get_od_part_1_desc
                        0x080af4f9    0x40  Code  Lc  fbs_vfd.o [5]
fbsvfd_get_trend_obj_desc
                        0x080af621    0x24  Code  Lc  fbs_vfd.o [5]
fbsvfd_get_view_desc    0x080af8a9    0x3c  Code  Lc  fbs_vfd.o [5]
fbsvfd_init             0x080aec81   0x22a  Code  Gb  fbs_vfd.o [5]
fbsvfd_init_std_view    0x080af2f1    0x40  Code  Lc  fbs_vfd.o [5]
fbsvfd_obj_not_found    0x080af4b7    0x42  Code  Lc  fbs_vfd.o [5]
fbsvfd_update_ap_dir    0x080af363    0xcc  Code  Gb  fbs_vfd.o [5]
fbsvfd_update_mvc_var_list
                        0x080af8ed    0x66  Code  Gb  fbs_vfd.o [5]
fbsvfd_update_od        0x080af331    0x32  Code  Gb  fbs_vfd.o [5]
fd_alarm_source_const   0x0809afa4    0x40  Data  Gb  appl_dia.o [1]
fdc_apply_for_nv_ram    0x080ad721    0xaa  Code  Gb  fdc.o [3]
fdc_base_cfg            0x20007d70     0x4  Data  Lc  fdc.o [3]
fdc_bgd_init            0x080adb35    0x2a  Code  Gb  fdc_bgd.o [3]
fdc_bgd_timer           0x20009dbc     0x4  Data  Gb  fdc_bgd.o [3]
fdc_blk_fb_link_cfg     0x20007ada     0x1  Data  Gb  fbs_nv.o [5]
fdc_blk_mvc_cfg         0x20007adc     0x1  Data  Gb  fbs_nv.o [5]
fdc_blk_trend_cfg       0x20007adb     0x1  Data  Gb  fbs_nv.o [5]
fdc_cfg_error           0x20007d76     0x2  Data  Lc  fdc.o [3]
fdc_check_nv_ram        0x080ad605   0x11c  Code  Gb  fdc.o [3]
fdc_complete_dwnld_action
                        0x080c0937    0xa8  Code  Gb  smdls.o [3]
fdc_config_dwnld_server
                        0x080c0859    0xde  Code  Gb  smdls.o [3]
fdc_device_start        0x20007db8    0x14  Data  Lc  fdc.o [3]
fdc_eep                 0x20007d78    0x24  Data  Lc  fdc.o [3]
fdc_fb_start_timer_id   0x20007d68     0x1  Data  Gb  fdc.o [3]
fdc_get_blk_swdl_cfg    0x080ad601     0x4  Code  Gb  fdc.o [3]
fdc_get_dwnld_state     0x080c0803    0x56  Code  Gb  smdls.o [3]
fdc_get_eep_blk_dll_base_cfg
                        0x080ad5e5     0x4  Code  Gb  fdc.o [3]
fdc_get_eep_blk_fb_start_cfg
                        0x080ad5f1     0x4  Code  Gb  fdc.o [3]
fdc_get_eep_blk_las_cfg
                        0x080ad5fd     0x4  Code  Gb  fdc.o [3]
fdc_get_eep_blk_lm_data_cfg
                        0x080ad5f9     0x4  Code  Gb  fdc.o [3]
fdc_get_eep_blk_lm_info_cfg
                        0x080ad5f5     0x4  Code  Gb  fdc.o [3]
fdc_get_eep_blk_sm_cfg  0x080ad5ed     0x4  Code  Gb  fdc.o [3]
fdc_get_eep_blk_vcr_cfg
                        0x080ad5e9     0x4  Code  Gb  fdc.o [3]
fdc_get_swdl_cfg        0x080adabf    0x56  Code  Gb  fdc.o [3]
fdc_load_new_config     0x080ad7cb    0x30  Code  Gb  fdc.o [3]
fdc_mb                  0x2000206c    0x78  Data  Lc  osif_cfg.o [1]
fdc_serial_number       0x20007da0    0x18  Data  Lc  fdc.o [3]
fdc_stack               0x200052a0   0x300  Data  Lc  osif_cfg.o [1]
fdc_start               0x080ad7fb    0x30  Code  Gb  fdc.o [3]
fdc_start_comm          0x080ada9d    0x22  Code  Lc  fdc.o [3]
fdc_start_fbs_timer     0x080adc79    0x20  Code  Gb  fdc_bgd.o [3]
fdc_start_smt2          0x080adc51    0x20  Code  Gb  fdc_bgd.o [3]
fdc_start_stack         0x080ad83d   0x252  Code  Lc  fdc.o [3]
fdc_stop_fbs_timer      0x080adc99     0x8  Code  Gb  fdc_bgd.o [3]
fdc_stop_smt2           0x080adc71     0x8  Code  Gb  fdc_bgd.o [3]
fdc_task_start          0x080ad82b    0x12  Code  Lc  fdc.o [3]
fdc_task_state          0x20007d74     0x1  Data  Gb  fdc.o [3]
fdc_wd_init             0x080adcad     0x4  Code  Gb  fdc_wd.o [3]
fdcbgd_fbs              0x20009dac    0x10  Data  Lc  fdc_bgd.o [3]
fdcbgd_smt2             0x20009d9c    0x10  Data  Lc  fdc_bgd.o [3]
fdl_mc_expired          0x080ada8f     0xe  Code  Lc  fdc.o [3]
ff_AlertSPTimeout_Execute_fromFB
                        0x0809eb69    0x6a  Code  Gb  appl_alert.o [1]
ff_fault                0x080979b0    0x2f  Data  Lc  mn_flash_selftest.o [1]
ff_faults               0x2000119c     0x4  Data  Lc  mn_flash_selftest.o [1]
ff_fstate_Background    0x0809fbf9    0x66  Code  Gb  mn_fstate.o [1]
ff_fstate_CheckAndCorrect
                        0x0809fd19    0x3e  Code  Lc  mn_fstate.o [1]
ff_fstate_Execute_fromFB
                        0x0809fb73    0x86  Code  Gb  mn_fstate.o [1]
ff_fstate_FB_SpSrc      0x0809fe93    0x76  Code  Lc  mn_fstate.o [1]
ff_fstate_FStateRangeCheck
                        0x0809fce9    0x30  Code  Lc  mn_fstate.o [1]
ff_fstate_ForceFstate_SP
                        0x0809fc85    0x64  Code  Gb  mn_fstate.o [1]
ff_fstate_PostProcessWriteConf
                        0x0809fe21    0x72  Code  Gb  mn_fstate.o [1]
ff_fstate_StatusOK      0x0809fb55    0x1e  Code  Lc  mn_fstate.o [1]
ff_fstate_StoreLastSP   0x0809fc5f    0x26  Code  Gb  mn_fstate.o [1]
ff_fstate_VerifyWriteConf
                        0x0809fd59    0xaa  Code  Gb  mn_fstate.o [1]
ffact_ReadFactoryUse1or2
                        0x080a2363    0x16  Code  Gb  ffactoryuse.o [1]
ffact_WriteFactoryUse1  0x080a231f    0x44  Code  Gb  ffactoryuse.o [1]
ffact_WriteIntercept    0x080a2259    0xc6  Code  Lc  ffactoryuse.o [1]
ffbl_alert_notify       0x200028e8    0x14  Data  Gb  ffbl_bas.o [1]
ffbl_bas_calc_block_mode
                        0x080946b7    0x2c  Code  Gb  ffbl_bas.o [1]
ffbl_bas_check_channel  0x0809481d    0x24  Code  Gb  ffbl_bas.o [1]
ffbl_bas_check_scale_limits
                        0x080946fb    0x68  Code  Gb  ffbl_bas.o [1]
ffbl_bas_check_sim_param
                        0x0809489f    0x1e  Code  Gb  ffbl_bas.o [1]
ffbl_bas_determine_good_nc_status
                        0x080946e3    0x18  Code  Gb  ffbl_bas.o [1]
ffbl_bas_rescale_value  0x08094909    0x5a  Code  Gb  ffbl_bas.o [1]
ffbl_bas_update_extended_block_alarm
                        0x08094b3d    0x38  Code  Gb  ffbl_bas.o [1]
ffbl_bas_update_sim_param
                        0x080948bd    0x40  Code  Gb  ffbl_bas.o [1]
ffbl_bas_write_grant_deny
                        0x08094875    0x2a  Code  Gb  ffbl_bas.o [1]
ffbl_call_fdev_funct    0x0809040c     0xc  Data  Gb  appl_if.o [1]
ffbl_check_block_alarm_unack_flag
                        0x0809485b    0x1a  Code  Gb  ffbl_bas.o [1]
ffbl_check_mode         0x08094763    0xba  Code  Gb  ffbl_bas.o [1]
ffbl_check_unack_flag   0x08094841    0x1a  Code  Gb  ffbl_bas.o [1]
ffbl_check_write_lock   0x0809b519    0x24  Code  Gb  ffbl_res.o [1]
ffbl_disable_update_events
                        0x08094b75     0x6  Code  Gb  ffbl_bas.o [1]
ffbl_enable_update_events
                        0x08094b7b    0x3c  Code  Gb  ffbl_bas.o [1]
ffbl_fd_active_c        0x0809cd2c    0x10  Data  Lc  ffbl_fd.o [1]
ffbl_fd_alm_c           0x0809cd4c    0x10  Data  Lc  ffbl_fd.o [1]
ffbl_fd_background      0x0809ca2b    0x8a  Code  Gb  ffbl_fd.o [1]
ffbl_fd_map_c           0x0809cd1c    0x10  Data  Lc  ffbl_fd.o [1]
ffbl_fd_mask_c          0x0809cd3c    0x10  Data  Lc  ffbl_fd.o [1]
ffbl_fd_pre_write_check
                        0x0809cc31    0x58  Code  Gb  ffbl_fd.o [1]
ffbl_fd_pri_c           0x0809cd5c    0x10  Data  Lc  ffbl_fd.o [1]
ffbl_fd_reset_simulate  0x0809ca21     0xa  Code  Gb  ffbl_fd.o [1]
ffbl_fd_start           0x0809c9ad    0x42  Code  Gb  ffbl_fd.o [1]
ffbl_fd_update_alarm_sum
                        0x0809cc89    0x6e  Code  Gb  ffbl_fd.o [1]
ffbl_fd_update_fd_alarm
                        0x0809cab5   0x17c  Code  Lc  ffbl_fd.o [1]
ffbl_generate_RESB_alarm
                        0x0809b53d    0x4c  Code  Gb  ffbl_res.o [1]
ffbl_init               0x080946b5     0x2  Code  Gb  ffbl_bas.o [1]
ffbl_load_fdiag_sources
                        0x0809c9ef    0x32  Code  Gb  ffbl_fd.o [1]
ffbl_provide_resb_data_to_fbs
                        0x0809b4f9    0x20  Code  Gb  ffbl_res.o [1]
ffbl_provide_resb_data_to_fdc
                        0x0809b4e1    0x18  Code  Gb  ffbl_res.o [1]
ffbl_res_old_block_alarm_bits
                        0x200013e2     0x2  Data  Lc  ffbl_res.o [1]
ffbl_update_block_alarm
                        0x08094963   0x1d4  Code  Gb  ffbl_bas.o [1]
ffcharact_InitCustomCharacterization
                        0x080a0dfb    0xb6  Code  Gb  mncharactff.o [1]
ffcharact_ReadCharacterizationCurve
                        0x080a0eb1     0x2  Code  Gb  mncharactff.o [1]
ffcharact_ReadSelection
                        0x080a0da5    0x46  Code  Gb  mncharactff.o [1]
ffcharact_WriteCustomCharacterization
                        0x080a0deb    0x10  Code  Gb  mncharactff.o [1]
ffcharact_WriteSelection
                        0x080a0cb9    0xe4  Code  Gb  mncharactff.o [1]
ffcheck_Advanced        0x080a076d    0x90  Code  Lc  mn_advanced.o [1]
ffcheck_AlertEnableChange
                        0x080a081b    0x9a  Code  Gb  mn_advanced.o [1]
ffcheck_ClrBuffer       0x080a0809    0x12  Code  Lc  mn_advanced.o [1]
ffcheck_ReadBitmap      0x080a09df    0x14  Code  Gb  mn_advanced.o [1]
ffcheck_ReadFilter      0x080a0a5b    0x1a  Code  Gb  mn_advanced.o [1]
ffcheck_WriteAdvanced   0x080a08b5   0x12a  Code  Gb  mn_advanced.o [1]
ffcheck_WriteBitmap     0x080a09f3    0x12  Code  Gb  mn_advanced.o [1]
ffcheck_WriteFilter     0x080a0a0f    0x4c  Code  Gb  mn_advanced.o [1]
ffctllim_ReadControlLimits
                        0x080a1605    0x1a  Code  Gb  mnctllimff.o [1]
ffctllim_WriteControlLimits
                        0x080a1769   0x16c  Code  Gb  mnctllimff.o [1]
ffctllim_WriteCutoffHi  0x080a161f    0xa2  Code  Gb  mnctllimff.o [1]
ffctllim_WriteCutoffLo  0x080a16c1    0xa0  Code  Gb  mnctllimff.o [1]
ffda_WriteDeviationAlert
                        0x080a35d1   0x178  Code  Gb  mn_deviation_alert.o [1]
ffdc_WriteDiagnostic_Configuration
                        0x080a3749    0xe8  Code  Gb  mn_diagnostic_configuration.o [1]
ffdiag_ReadDiagnosticCommand
                        0x080a11b3    0x2c  Code  Gb  mndiagprocff.o [1]
ffdiag_ReadDiagnosticData
                        0x080a1483    0x66  Code  Gb  mndiagprocff.o [1]
ffdiag_WriteDiagnosticCommand
                        0x080a11df   0x2a4  Code  Gb  mndiagprocff.o [1]
ffdiag_WriteDiagnosticData
                        0x080a14e9    0x54  Code  Gb  mndiagprocff.o [1]
ffdosw_BackgroundPlugin
                        0x0809f9fd    0x5c  Code  Lc  mndoswff.o [1]
ffdosw_ReadConfiguration
                        0x0809f8ff     0xe  Code  Gb  mndoswff.o [1]
ffdosw_Runtime          0x0809f827    0x5c  Code  Gb  mndoswff.o [1]
ffdosw_TbBackgroundPatrol
                        0x0809fa61    0x10  Code  Gb  mndoswff.o [1]
ffdosw_WriteConfiguration
                        0x0809f90d    0x74  Code  Gb  mndoswff.o [1]
fffs_WritePropagateMode
                        0x080a3831    0x2e  Code  Gb  mn_failed_state.o [1]
ffmansp_SendManualSetpoint
                        0x0809e601    0x4c  Code  Lc  mntbmspff.o [1]
ffmansp_WriteManualSetpoint
                        0x0809e64d    0x8a  Code  Gb  mntbmspff.o [1]
ffmansp_WriteManualSetpointD
                        0x0809e6d7    0xc4  Code  Gb  mntbmspff.o [1]
ffmansp_WriteManualSetpointDINT
                        0x0809e79b    0x8c  Code  Gb  mntbmspff.o [1]
ffpflash_Fail           0x08097995     0x4  Code  Gb  mn_flash_selftest.o [1]
ffposcal_ReadFindStops  0x080a0ecd    0x24  Code  Gb  mnfindstopsff.o [1]
ffposcal_ReadFindStopsInfo
                        0x080a0f5b    0x5e  Code  Gb  mnfindstopsff.o [1]
ffposcal_ReadOpenStopAdjustment
                        0x080a0fb9    0x28  Code  Gb  mnfindstopsff.o [1]
ffposcal_WriteFindStops
                        0x080a0ef1    0x6a  Code  Gb  mnfindstopsff.o [1]
ffposcal_WriteOpenStopAdjustment
                        0x080a0fe1    0x36  Code  Gb  mnfindstopsff.o [1]
ffposcal_WriteStopPosition
                        0x080a106b   0x148  Code  Gb  mnfindstopsff.o [1]
ffres_restart_APP       0x080ab57b     0xc  Code  Gb  mn_factory_defaults.o [1]
ffres_restart_factory_defaults
                        0x080ab61d   0x15c  Code  Gb  mn_factory_defaults.o [1]
ffres_restart_hidden    0x080ab587    0x8c  Code  Gb  mn_factory_defaults.o [1]
ffres_restart_restore_advanced
                        0x080ab77f    0x68  Code  Gb  mn_factory_defaults.o [1]
ffrps_ReadAccessory     0x080a2475    0x20  Code  Gb  mn_remote_sensor.o [1]
ffrps_WriteAccessory    0x080a2495    0xa4  Code  Gb  mn_remote_sensor.o [1]
fftbpr_PressureUnitUpdate
                        0x080a1d43    0xec  Code  Gb  pressure_range.o [1]
fftbsp_WriteSupplyPressureAlert
                        0x080a31f9   0x2d4  Code  Gb  mn_supply_pressure_alert.o [1]
final_cd2               0x080b7aa3    0x22  Code  Lc  dll_lrx.o [3]
final_cl                0x080b7909     0x2  Code  Lc  dll_lrx.o [3]
final_ct                0x080b77a7    0x58  Code  Lc  dll_lrx.o [3]
final_dc1_dc2           0x080b7955     0xa  Code  Lc  dll_lrx.o [3]
final_dt1_dt2           0x080b795f    0xf2  Code  Lc  dll_lrx.o [3]
final_dt3_dt5           0x080b7a51    0x52  Code  Lc  dll_lrx.o [3]
final_ec1_ec2           0x080b790b    0x4a  Code  Lc  dll_lrx.o [3]
final_idle              0x080b7785     0x2  Code  Lc  dll_lrx.o [3]
final_pr                0x080b7787     0x2  Code  Lc  dll_lrx.o [3]
final_pt                0x080b785d    0x7a  Code  Lc  dll_lrx.o [3]
final_ri                0x080b778b    0x1c  Code  Lc  dll_lrx.o [3]
final_rq                0x080b7ac5    0xae  Code  Lc  dll_lrx.o [3]
final_rt                0x080b7789     0x2  Code  Lc  dll_lrx.o [3]
final_sr                0x080b78f9    0x10  Code  Lc  dll_lrx.o [3]
final_td                0x080b78d7    0x22  Code  Lc  dll_lrx.o [3]
final_tl                0x080b77ff    0x5e  Code  Lc  dll_lrx.o [3]
finish_prepare_swdl     0x0809c465     0x4  Code  Gb  appl_svi_swdl.o [1]
first_time              0x20004d58     0x1  Data  Lc  hm_task.o [1]
fl_adj_013              0x080acd87   0x268  Code  Lc  tmp_hi.o [3]
fl_adj_037              0x080aca23    0xc0  Code  Lc  tmp_hi.o [3]
fl_nand_025             0x080acae3   0x160  Code  Lc  tmp_hi.o [3]
fl_nand_037             0x080acd0f    0x78  Code  Lc  tmp_hi.o [3]
fl_tim_013              0x080acfef   0x128  Code  Lc  tmp_hi.o [3]
fl_tim_025              0x080ad14d    0x3c  Code  Lc  tmp_hi.o [3]
fl_tim_072              0x080ad189    0x40  Code  Lc  tmp_hi.o [3]
fl_xor_037              0x080acc43    0x5c  Code  Lc  tmp_hi.o [3]
fl_xor_072              0x080acc9f    0x70  Code  Lc  tmp_hi.o [3]
flash_ClosePartition    0x0809df93    0x1e  Code  Gb  stm_flash.o [1]
flash_GetPartitionBaseAddress
                        0x0809df51    0x18  Code  Gb  stm_flash.o [1]
flash_GetRunningPartitionID
                        0x0809e09d    0x14  Code  Gb  stm_flash.o [1]
flash_OpenPartition     0x0809df69    0x2a  Code  Gb  stm_flash.o [1]
flash_ProgramBlock      0x0809dfb1    0xe6  Code  Gb  stm_flash.o [1]
flash_SetPartition      0x0809de9b    0xb6  Code  Gb  stm_flash.o [1]
flashpoint              0x200023dc     0x4  Data  Lc  selftest.o [1]
flashticks              0x200023e0     0x4  Data  Lc  selftest.o [1]
flimit                  0x080a30b4    0x38  Data  Lc  lui_ipc_variables.o [1]
float_max_u32           0x20007a68     0x4  Data  Lc  fbs_run.o [5]
float_min_u32           0x20007a6c     0x4  Data  Lc  fbs_run.o [5]
float_str               0x20001384     0xc  Data  Lc  lui_ipc_variables.o [1]
floorf                  0x080a3b25          Code  Gb  floorf.o [6]
fmg_calc_eep_size       0x080c5027    0x20  Code  Gb  fmg.o [3]
fmg_eep_size            0x20010fa8     0xc  Data  Gb  fmg.o [3]
fmg_init                0x080c4fcd    0x12  Code  Gb  fmg.o [3]
fmg_load_dll_basic_defaults
                        0x080c50df    0x28  Code  Gb  fmg.o [3]
fmg_load_fb_start_defaults
                        0x080c50b5    0x2a  Code  Gb  fmg.o [3]
fmg_load_sm_defaults    0x080c5047    0x60  Code  Gb  fmg.o [3]
fmg_start               0x080c4fdf    0x48  Code  Gb  fmg.o [3]
fms_param               0x2001056c   0xa28  Data  Gb  falvcr.o [3]
fms_param               0x200123f8    0x28  Data  Lc  nmvcr.o [3]
fms_usr_get_vfd_info    0x080b2ee9    0x20  Code  Gb  fbs_od.o [5]
fms_usr_handle_con_ind  0x080b0319   0x1b8  Code  Gb  fbs_if.o [5]
fms_usr_handle_fms_event
                        0x080b04ef    0x28  Code  Gb  fbs_if.o [5]
fms_usr_handle_sub_ind  0x080b04d1    0x1e  Code  Gb  fbs_if.o [5]
fmscod_enc_vstring      0x080bff6b    0x32  Code  Lc  fmscod.o [3]
fmscod_gen_abt_req      0x080bfc5b    0x40  Code  Gb  fmscod.o [3]
fmscod_gen_evt_notify_req
                        0x080bfd87    0xa8  Code  Gb  fmscod.o [3]
fmscod_gen_get_od_res   0x080bfbbf    0x3c  Code  Gb  fmscod.o [3]
fmscod_gen_identify_res
                        0x080bfb4d    0x72  Code  Gb  fmscod.o [3]
fmscod_gen_info_req_hdr
                        0x080bfd75    0x12  Code  Gb  fmscod.o [3]
fmscod_gen_info_rpt_req
                        0x080bfcbb    0xba  Code  Gb  fmscod.o [3]
fmscod_gen_init_res_neg
                        0x080bfabb    0x42  Code  Gb  fmscod.o [3]
fmscod_gen_init_res_pos
                        0x080bfa65    0x56  Code  Gb  fmscod.o [3]
fmscod_gen_null_res     0x080bfc3b    0x20  Code  Gb  fmscod.o [3]
fmscod_gen_read_res     0x080bfbfb    0x2c  Code  Gb  fmscod.o [3]
fmscod_gen_reject_pdu   0x080bfc9b    0x20  Code  Gb  fmscod.o [3]
fmscod_gen_res_neg      0x080bfe35   0x136  Code  Gb  fmscod.o [3]
fmscod_gen_status_res   0x080bfafd    0x50  Code  Gb  fmscod.o [3]
fmscod_gen_term_gen_dwnld_res
                        0x080bfc27    0x14  Code  Gb  fmscod.o [3]
fmsif_get_info_report_sdb
                        0x080c009d    0x66  Code  Gb  fmsif.o [3]
fmsif_get_sdb           0x080bff9d   0x100  Code  Gb  fmsif.o [3]
fmsif_return_sdb        0x080c0103     0x6  Code  Gb  fmsif.o [3]
fmsif_send_info_report_req
                        0x080c011d    0x7a  Code  Gb  fmsif.o [3]
fmsif_send_req_res      0x080c0109    0x10  Code  Gb  fmsif.o [3]
fmsif_send_sm_req       0x080c0119     0x4  Code  Gb  fmsif.o [3]
fmsif_vcr_is_configured
                        0x080c0197    0x4a  Code  Gb  fmsif.o [3]
fram_Initialize         0x08097d95     0x2  Code  Gb  hw_i2c.o [1]
fram_ReadExt            0x08097d1f    0x32  Code  Gb  hw_i2c.o [1]
fram_WriteExt           0x08097ccb    0x54  Code  Gb  hw_i2c.o [1]
ftoa                    0x080a2a25    0x8c  Code  Lc  lui_ipc_variables.o [1]
ftoa_inrange            0x080a2959    0xcc  Code  Lc  lui_ipc_variables.o [1]
func_get_p_value_array  0x0809aba0    0x30  Data  Lc  eep_blk2.o [1]
fwBaseAddress           0x20001188     0x4  Data  Lc  mn_fwdl.o [1]
fwCurrentAddress        0x20001184     0x4  Data  Lc  mn_fwdl.o [1]
fwWds                   0x20001910    0x34  Data  Lc  mn_fwdl.o [1]
fwdk_AdaptAppNvmem      0x0809e139    0x74  Code  Gb  mn_fwdl_hart.o [1]
fwdk_WriteAppCPU        0x0809e0f1    0x48  Code  Gb  mn_fwdl_hart.o [1]
fwdk_WriteAppCPU32      0x0809e1ad    0x38  Code  Gb  mn_fwdl_hart.o [1]
get_AlertLogPtr         0x0809f31f     0xc  Code  Gb  appl_alert.o [1]
get_Histogram_PosErr    0x0809ff25     0xc  Code  Gb  histogram.o [1]
get_Position_Histogram_internal
                        0x0809ff31     0xc  Code  Gb  histogram.o [1]
get_a_long_var          0x080a2bc9    0xa8  Code  Lc  lui_ipc_variables.o [1]
get_a_short_var         0x080a2b39    0x8e  Code  Lc  lui_ipc_variables.o [1]
get_address_loc         0x080b8ca5    0x20  Code  Lc  dll_acc.o [3]
get_alert_buffer        0x080ae7c1    0x14  Code  Lc  fbs_alt.o [5]
get_sm_config_data      0x080c2531    0x34  Code  Gb  sm.o [3]
get_trend_counter_cycle_counter
                        0x080a04b3     0x2  Code  Gb  mn_trends.o [1]
get_trend_counter_position_err
                        0x080a04bd     0x4  Code  Gb  mn_trends.o [1]
get_trend_counter_travel_acc
                        0x080a04af     0x4  Code  Gb  mn_trends.o [1]
get_unscheduled         0x080bb553    0x4c  Code  Lc  dll_ltx.o [3]
hCopyWithChsum          0x08095b0f    0x2c  Code  Gb  crc.o [1]
hCrc16                  0x08095add    0x32  Code  Gb  crc.o [1]
hart_cycl               0x08090420     0x4  Data  Gb  appl_ptb.o [1]
hart_reg                0x08090424     0x3  Data  Gb  appl_ptb.o [1]
hartcmd_EmulateFirmwareActivation
                        0x080a2217    0x40  Code  Gb  ffactoryuse.o [1]
hartcmd_ReadFFPNVMEMTestStatistics
                        0x080a21e5    0x2c  Code  Gb  ffactoryuse.o [1]
hartcmd_ReadFFPNVMEMblocksdirectory
                        0x080a21bb    0x2a  Code  Gb  ffactoryuse.o [1]
hartcmd_ReadFFPNVMEMheader
                        0x080a2189    0x32  Code  Gb  ffactoryuse.o [1]
hartcmd_ReadFFPmemory   0x080a2121    0x36  Code  Gb  ffactoryuse.o [1]
hartcmd_WriteFFPmemory  0x080a2157    0x32  Code  Gb  ffactoryuse.o [1]
header                  0x20004b50     0xc  Data  Lc  hm.o [1]
highest_pri_status      0x080b5e71    0x30  Code  Lc  fbs_trd.o [5]
histogram_CalPoserrComponent
                        0x0809ff3d    0x82  Code  Lc  histogram.o [1]
hm_call_appl_funct      0x0809043c    0x18  Data  Gb  appl_ptb.o [1]
hm_command              0x20004d40    0x14  Data  Lc  hm_task.o [1]
hm_connect              0x08099409     0x8  Code  Gb  hm_task.o [1]
hm_get_ident            0x080995b5    0xa0  Code  Lc  hm_task.o [1]
hm_init                 0x0809ada1    0x2c  Code  Gb  hm_if.o [1]
hm_mb                   0x20002324    0x30  Data  Lc  osif_cfg.o [1]
hm_stack                0x20006f20   0x500  Data  Lc  osif_cfg.o [1]
hm_start_new_cmd        0x08099655   0x1b0  Code  Lc  hm_task.o [1]
hm_state                0x20004d55     0x1  Data  Lc  hm_task.o [1]
hm_timer_id             0x20004d57     0x1  Data  Lc  hm_task.o [1]
hm_user_task_id         0x20004d56     0x1  Data  Lc  hm_task.o [1]
hw_cfg_EXTI             0x0809a121    0x2a  Code  Gb  hw_periph_cfg.o [1]
hw_cfg_FSMC             0x0809a20b    0x2a  Code  Gb  hw_periph_cfg.o [1]
hw_cfg_GPIO             0x08099ddd   0x344  Code  Gb  hw_periph_cfg.o [1]
hw_cfg_NVIC             0x0809a14b    0xc0  Code  Gb  hw_periph_cfg.o [1]
hw_cfg_TIMx             0x0809a235   0x132  Code  Gb  hw_periph_cfg.o [1]
hw_get_nvram_erase_jumper
                        0x0809a4c1    0x42  Code  Gb  hw_io.o [1]
hw_get_simulate_enable_jumper
                        0x0809a503    0x10  Code  Gb  hw_io.o [1]
hw_hm_init              0x080992cd    0xa6  Code  Gb  hw_hm.o [1]
hw_hm_set_baudrate      0x08099373    0x86  Code  Gb  hw_hm.o [1]
hw_io_cfg_se_timer      0x0809a5b7    0x24  Code  Gb  hw_io.o [1]
hw_io_generate_fbc_clock
                        0x0809a575    0x3a  Code  Gb  hw_io.o [1]
hw_io_get_cpu_freq      0x0809a5af     0x4  Code  Gb  hw_io.o [1]
hw_io_se_delay_us       0x0809a5db    0xbe  Code  Gb  hw_io.o [1]
hw_tim_start_timer      0x0809be47    0x46  Code  Gb  hw_tim.o [1]
hw_tim_stop_timer       0x0809be8d    0x1a  Code  Gb  hw_tim.o [1]
hw_timer_handler        0x08099977    0x70  Code  Gb  osif_tim.o [1]
hw_write_protection     0x0809a513    0x10  Code  Gb  hw_io.o [1]
i2cMutex                0x20001a78    0x10  Data  Lc  hw_i2c.o [1]
i2c_AcquireMutex        0x08097d57    0x1c  Code  Gb  hw_i2c.o [1]
i2c_CreateMutex         0x08097d51     0x6  Code  Gb  hw_i2c.o [1]
i2c_Initialize          0x08097a5b    0x70  Code  Lc  hw_i2c.o [1]
i2c_ReleaseMutex        0x08097d73     0x6  Code  Gb  hw_i2c.o [1]
iH                      0x2000114c    0x18  Data  Lc  mn_fwdl.o [1]
idle_frame              0x2000d0b0   0x100  Data  Lc  dll_las.o [3]
idle_loop               0x080957a1    0x12  Code  Lc  osif_tsk.o [1]
idle_task_ext           0x08095828     0x8  Data  Lc  osif_tsk.o [1]
imageCt                 0x20001190     0x4  Data  Lc  mn_fwdl.o [1]
init                    0x0809e5e0    0x20  Data  Lc  sha256.o [1]
init_interrupts         0x080ac9b1     0x2  Code  Gb  hw_intr.o [1]
init_mparams            0x080964ab    0x34  Code  Lc  dlmalloc.o [4]
init_osfb_data          0x080a8965    0x1e  Code  Lc  ffbl_os.o [1]
init_processor          0x08097fb7    0x2a  Code  Gb  hw_init.o [1]
init_svi_dwnld          0x0809c455     0x8  Code  Gb  appl_svi_swdl.o [1]
init_top                0x080964df    0x34  Code  Lc  dlmalloc.o [4]
initialized             0x200019f6     0x1  Data  Lc  hm.o [1]
input_states            0x20002958     0x4  Data  Gb  ffbl_ar.o [1]
int2string              0x080c5107    0x28  Code  Lc  fmg.o [3]
int_handler_fbc         0x080b7033   0x21c  Code  Gb  dll_spc4.o [3]
internal_Pow            0x08093149   0x428  Code  Lc  pow.o [6]
ipc_ReadOneVar          0x0809da1b   0x2e0  Code  Lc  mnipcff.o [1]
isWarmstart             0x200028e3     0x1  Data  Lc  stubs_app.o [1]
is_enabled_float_var    0x080a2ae9    0x38  Code  Lc  lui_ipc_variables.o [1]
is_enabled_var          0x080a2ab1    0x38  Code  Lc  lui_ipc_variables.o [1]
isfb_1                  0x20003aa4    0xe0  Data  Gb  instance.o [1]
isfb_1_dft              0x0808576c    0x50  Data  Gb  instance.o [1]
isfb_object             0x08085b14    0x34  Data  Lc  isfb.o [1]
isfb_object_alert_key   0x08085be4    0x34  Data  Lc  isfb.o [1]
isfb_object_block_alm   0x08085ff4    0x34  Data  Lc  isfb.o [1]
isfb_object_block_err   0x08085c4c    0x34  Data  Lc  isfb.o [1]
isfb_object_block_err_desc_1
                        0x08086028    0x34  Data  Lc  isfb.o [1]
isfb_object_disable_1   0x08085e20    0x34  Data  Lc  isfb.o [1]
isfb_object_disable_2   0x08085e54    0x34  Data  Lc  isfb.o [1]
isfb_object_disable_3   0x08085e88    0x34  Data  Lc  isfb.o [1]
isfb_object_disable_4   0x08085ebc    0x34  Data  Lc  isfb.o [1]
isfb_object_grant_deny  0x08085ce8    0x34  Data  Lc  isfb.o [1]
isfb_object_in_1        0x08085d50    0x34  Data  Lc  isfb.o [1]
isfb_object_in_2        0x08085d84    0x34  Data  Lc  isfb.o [1]
isfb_object_in_3        0x08085db8    0x34  Data  Lc  isfb.o [1]
isfb_object_in_4        0x08085dec    0x34  Data  Lc  isfb.o [1]
isfb_object_min_good    0x08085f24    0x34  Data  Lc  isfb.o [1]
isfb_object_mode_blk    0x08085c18    0x34  Data  Lc  isfb.o [1]
isfb_object_op_select   0x08085f8c    0x34  Data  Lc  isfb.o [1]
isfb_object_out         0x08085c80    0x34  Data  Lc  isfb.o [1]
isfb_object_out_range   0x08085cb4    0x34  Data  Lc  isfb.o [1]
isfb_object_select_type
                        0x08085ef0    0x34  Data  Lc  isfb.o [1]
isfb_object_selected    0x08085f58    0x34  Data  Lc  isfb.o [1]
isfb_object_st_rev      0x08085b48    0x34  Data  Lc  isfb.o [1]
isfb_object_status_opts
                        0x08085d1c    0x34  Data  Lc  isfb.o [1]
isfb_object_strategy    0x08085bb0    0x34  Data  Lc  isfb.o [1]
isfb_object_tag_desc    0x08085b7c    0x34  Data  Lc  isfb.o [1]
isfb_object_update_evt  0x08085fc0    0x34  Data  Lc  isfb.o [1]
isfb_object_view_1_1    0x0808605c    0x78  Data  Gb  isfb.o [1]
isfb_object_view_2_1    0x080860d4    0x78  Data  Gb  isfb.o [1]
isfb_object_view_3_1    0x0808614c    0x78  Data  Gb  isfb.o [1]
isfb_object_view_4_1    0x080861c4    0x78  Data  Gb  isfb.o [1]
isfb_param_dir          0x080859dc   0x138  Data  Gb  isfb.o [1]
k                       0x0809e4e0   0x100  Data  Lc  sha256.o [1]
labs                    0x080ac94d     0x8  Code  Gb  labs.o [4]
las_check_time          0x080baa71    0xf4  Code  Lc  dll_las.o [3]
las_sched               0x2000ae68    0x14  Data  Gb  dll_bas.o [3]
las_stack               0x200051a0   0x100  Data  Lc  osif_cfg.o [1]
las_start_sched         0x080bab71    0x64  Code  Lc  dll_las.o [3]
last_node_time_2sec     0x20009dc4     0x4  Data  Lc  smtim.o [3]
last_time               0x2000856c     0x4  Data  Lc  dll_spc4.o [3]
link_obj_desc           0x080af5ec    0x34  Data  Lc  fbs_vfd.o [5]
ll_detail_req           0x2000d0a4     0x1  Data  Gb  dll_las.o [3]
lm_eep_size             0x2000a244     0x8  Data  Gb  dll_cfg.o [3]
lnbias                  0x08093588   0x420  Data  Lc  pow.o [6]
long_var_info_array     0x080a2f74   0x12c  Data  Gb  lui_ipc_variables.o [1]
lroundf                 0x080a3a7d    0x40  Code  Gb  lroundf.o [6]
lthBytePosn             0x20004b6c     0x4  Data  Lc  hm.o [1]
lui_Simulation          0x2000113a     0x1  Data  Lc  mnipcff.o [1]
m                       0x200023e4   0x100  Data  Lc  sha256.o [1]
macrocycle_supervision  0x20009dc0     0x1  Data  Gb  smtim.o [3]
maifb_1                 0x200034f0    0xdc  Data  Gb  instance.o [1]
maifb_1_channels        0x080856c4     0x8  Data  Gb  instance.o [1]
maifb_1_dft             0x08085674    0x50  Data  Gb  instance.o [1]
maifb_object            0x08086474    0x34  Data  Lc  maifb.o [1]
maifb_object_alert_key  0x08086544    0x34  Data  Lc  maifb.o [1]
maifb_object_block_alm  0x080867e8    0x34  Data  Lc  maifb.o [1]
maifb_object_block_err  0x080865ac    0x34  Data  Lc  maifb.o [1]
maifb_object_block_err_desc_1
                        0x0808681c    0x34  Data  Lc  maifb.o [1]
maifb_object_channel    0x080865e0    0x34  Data  Lc  maifb.o [1]
maifb_object_mode_blk   0x08086578    0x34  Data  Lc  maifb.o [1]
maifb_object_out_1      0x08086614    0x34  Data  Lc  maifb.o [1]
maifb_object_out_2      0x08086648    0x34  Data  Lc  maifb.o [1]
maifb_object_out_3      0x0808667c    0x34  Data  Lc  maifb.o [1]
maifb_object_out_4      0x080866b0    0x34  Data  Lc  maifb.o [1]
maifb_object_out_5      0x080866e4    0x34  Data  Lc  maifb.o [1]
maifb_object_out_6      0x08086718    0x34  Data  Lc  maifb.o [1]
maifb_object_out_7      0x0808674c    0x34  Data  Lc  maifb.o [1]
maifb_object_out_8      0x08086780    0x34  Data  Lc  maifb.o [1]
maifb_object_st_rev     0x080864a8    0x34  Data  Lc  maifb.o [1]
maifb_object_strategy   0x08086510    0x34  Data  Lc  maifb.o [1]
maifb_object_tag_desc   0x080864dc    0x34  Data  Lc  maifb.o [1]
maifb_object_update_evt
                        0x080867b4    0x34  Data  Lc  maifb.o [1]
maifb_object_view_1_1   0x08086850    0x78  Data  Gb  maifb.o [1]
maifb_object_view_2_1   0x080868c8    0x78  Data  Gb  maifb.o [1]
maifb_object_view_3_1   0x08086940    0x78  Data  Gb  maifb.o [1]
maifb_object_view_4_1   0x080869b8    0x78  Data  Gb  maifb.o [1]
maifb_param_dir         0x08086390    0xe4  Data  Gb  maifb.o [1]
main                    0x080959e5    0x4c  Code  Gb  osif_mn.o [1]
maintnow                0x0809f7f1     0xc  Code  Lc  mndoswff.o [1]
maintsoon               0x0809f7e5     0xc  Code  Lc  mndoswff.o [1]
master_state            0x20004b60     0x4  Data  Lc  hm.o [1]
max_allwrite_time       0x200011e8     0x4  Data  Lc  eep_if.o [1]
mbuffer_base            0x20001b2c   0x320  Data  Lc  osif_tsk.o [1]
mc_as                   0x20012aab     0x1  Data  Lc  smtim.o [3]
mc_expired              0x080c2ac5     0xc  Code  Gb  smtim.o [3]
memcmp                  0x0809a6d1          Code  Gb  memcmp.o [8]
memcpy                  0x0809c479     0xc  Code  Gb  appl_dlh.o [1]
memset                  0x080b72e5    0x14  Code  Gb  dll_list.o [3]
mgmt_ds                 0x080926bc   0x134  Data  Lc  mib.o [3]
mgmt_dt                 0x08092664    0x58  Data  Lc  mib.o [3]
mgmt_ods                0x080927f0   0x354  Data  Lc  mib.o [3]
mgmt_ods_swdl           0x08092b44    0x68  Data  Lc  mib.o [3]
mgmt_vfd                0x08092bac    0x18  Data  Gb  mib.o [3]
mib_data                0x08092ff6    0x88  Data  Gb  fmg.o [3]
min_st_x_min_mrd        0x20012a98     0x2  Data  Gb  dll_bas.o [3]
minusInf                0x080aab0c     0x4  Data  Gb  ffbl_pid.o [1]
mn_ClearAssert          0x0809592d    0x1e  Code  Gb  mnassert.o [1]
mn_ConflictOtherDOChannels
                        0x080a6fbb    0x50  Code  Lc  ffbl_do.o [1]
mn_Dofb_ApplyInvert     0x080a700b    0x28  Code  Lc  ffbl_do.o [1]
mn_ErrorBits_Process    0x0809fb19    0x28  Code  Gb  mn_errorbits.o [1]
mn_ErrorBits_Set        0x0809fae1    0x38  Code  Gb  mn_errorbits.o [1]
mn_ExpireAssertEx       0x0809594b    0x26  Code  Gb  mnassert.o [1]
mn_GetAssertId          0x08095839    0x38  Code  Gb  mnassert.o [1]
mn_GetBit               0x080a0749    0x24  Code  Gb  mn_advanced.o [1]
mn_GetByte              0x080a072b    0x1e  Code  Lc  mn_advanced.o [1]
mn_HART_NeedToCheckTimeout
                        0x200018d0     0x1  Data  Lc  mnipcff.o [1]
mn_HART_ReceiveTimeStamp
                        0x200018d4     0x4  Data  Lc  mnipcff.o [1]
mn_HART_ReceivedResponse
                        0x0809d98d    0x12  Code  Gb  mnipcff.o [1]
mn_HART_ResponseTimeOut
                        0x0809d9d1    0x10  Code  Gb  mnipcff.o [1]
mn_HART_ResponseTimedOut
                        0x200018d2     0x2  Data  Lc  mnipcff.o [1]
mn_HART_VerifyResponseTO
                        0x0809d99f    0x32  Code  Gb  mnipcff.o [1]
mn_HART_acyc_cmd        0x080a39d7    0x62  Code  Gb  mnhart2ff.o [1]
mn_InitAssert           0x080958c1    0x6c  Code  Gb  mnassert.o [1]
mn_SetBufferFlag        0x080a0711    0x1a  Code  Lc  mn_advanced.o [1]
mn_assert               0x08095871    0x50  Code  Gb  mnassert.o [1]
mn_fbs_write_param_loc  0x080a153d    0x2e  Code  Lc  mnctllimff.o [1]
mn_fbs_write_param_loc  0x0809f695    0x2e  Code  Lc  mn_working_times.o [1]
mn_pull_float           0x080a156b    0x10  Code  Lc  mnctllimff.o [1]
mnfaults_Import         0x080a3861    0xb0  Code  Gb  mnfaultsimport.o [1]
mnfbs_call_fdev_funct   0x080903ec    0x20  Data  Gb  appl_if.o [1]
mnfdc_wd_reset_wd_counter
                        0x08095243     0x2  Code  Gb  osif_tsk.o [1]
mnipc_InitSpAndMode     0x0809e82d    0x2c  Code  Gb  mntbmspff.o [1]
mnipc_ReadVars          0x0809dd69    0x4c  Code  Gb  mnipcff.o [1]
mnipc_ReceiveSpAndMode  0x0809e859   0x1e8  Code  Gb  mntbmspff.o [1]
mnipc_SendSpAndMode     0x0809ea41   0x102  Code  Gb  mntbmspff.o [1]
mnipc_WriteDOswitches   0x0809dd39    0x30  Code  Gb  mnipcff.o [1]
mnipc_WriteVars         0x0809dcfb    0x3e  Code  Gb  mnipcff.o [1]
mnptb_GetTBRecommendedAction
                        0x0809d829     0x6  Code  Gb  mnptberrors.o [1]
mnptb_ProcErrors        0x0809d82f   0x142  Code  Gb  mnptberrors.o [1]
mnsmdl_call_fdev_funct  0x0809aa84    0x14  Data  Gb  appl_dlh.o [1]
mo                      0x20002924    0x34  Data  Gb  ffbl_mo.o [1]
mparams                 0x200026f0    0x18  Data  Lc  dlmalloc.o [4]
msg_blk_buf             0x20012048   0x210  Data  Lc  nmvcr.o [3]
msg_pending             0x200019f4     0x1  Data  Lc  hm.o [1]
mvc_desc_list           0x20009dd4     0x4  Data  Lc  fbs_mvc.o [5]
mvc_fb_scd_list         0x20009ddc   0x180  Data  Lc  fbs_mvc.o [5]
mvc_list                0x20009dd8     0x4  Data  Lc  fbs_mvc.o [5]
mvc_obj_desc            0x080aef60    0x34  Data  Lc  fbs_vfd.o [5]
mvc_revision_number_obj_desc
                        0x080af858    0x34  Data  Lc  fbs_vfd.o [5]
mvc_stack               0x200057a0   0x100  Data  Lc  osif_cfg.o [1]
mvc_tmp_blk_list        0x20009f5c   0x180  Data  Lc  fbs_mvc.o [5]
mvc_tmp_par_list        0x2000a0dc   0x100  Data  Lc  fbs_mvc.o [5]
mvc_var_list_size       0x200087f4     0x2  Data  Lc  fbs_vfd.o [5]
mvc_varibale_list_obj_desc
                        0x08091600    0x78  Data  Lc  fbs_vfd.o [5]
mychecksum              0x080c5434          Data  Gb  endofimage.o [1]
mykey                   0x20001174     0x4  Data  Lc  mn_fwdl.o [1]
new_role                0x20010f9c     0x1  Data  Lc  falvcr.o [3]
new_vcr                 0x20010f9d     0x1  Data  Lc  falvcr.o [3]
new_vcr_stat            0x20010538    0x34  Data  Lc  falvcr.o [3]
newfault                0x080978f5    0x1e  Code  Lc  mn_flash_selftest.o [1]
nextblock               0x0809840f    0x1a  Code  Lc  eep_if.o [1]
nm_abt_msg_ptr          0x20012320    0x80  Data  Lc  nmvcr.o [3]
nm_ack_msg_ptr          0x200123a0    0x58  Data  Lc  nmvcr.o [3]
nm_conn_descr           0x20012258    0xc8  Data  Gb  nmvcr.o [3]
nm_directory            0x080c4fa0    0x2c  Data  Gb  nmcfg.o [3]
nm_events               0x2000a200     0x4  Data  Gb  nmcfg.o [3]
nm_init                 0x080c34cd    0x1c  Code  Gb  nmif.o [3]
nm_start                0x080c34e9     0x4  Code  Gb  nmif.o [3]
nm_struct_1             0x08091c10    0x9a  Data  Lc  mib.o [3]
nm_struct_10            0x08092046    0x9a  Data  Lc  mib.o [3]
nm_struct_12            0x080920e0    0x9a  Data  Lc  mib.o [3]
nm_struct_13            0x0809217a    0x9a  Data  Lc  mib.o [3]
nm_struct_14            0x08092214    0x9a  Data  Lc  mib.o [3]
nm_struct_15            0x080922ae    0x9a  Data  Lc  mib.o [3]
nm_struct_17            0x08092348    0x9a  Data  Lc  mib.o [3]
nm_struct_2             0x08091caa    0x9a  Data  Lc  mib.o [3]
nm_struct_3             0x08091d44    0x9a  Data  Lc  mib.o [3]
nm_struct_4             0x08091dde    0x9a  Data  Lc  mib.o [3]
nm_struct_5             0x08091e78    0x9a  Data  Lc  mib.o [3]
nm_struct_6             0x08091f12    0x9a  Data  Lc  mib.o [3]
nm_struct_7             0x08091fac    0x9a  Data  Lc  mib.o [3]
nmcfg_acc_buffer        0x2000a204    0x34  Data  Lc  nmcfg.o [3]
nmcfg_finish_pending_write
                        0x080c4379    0x18  Code  Gb  nmcfg.o [3]
nmcfg_get_vcr_start_index
                        0x080c404d     0x6  Code  Gb  nmcfg.o [3]
nmcfg_init              0x080c4041     0xc  Code  Gb  nmcfg.o [3]
nmcfg_prim_lm_ready     0x080c4e65    0x12  Code  Gb  nmcfg.o [3]
nmcfg_read_channel_states
                        0x080c4c99    0x7e  Code  Lc  nmcfg.o [3]
nmcfg_read_dlme_characteristics
                        0x080c48d9    0x7c  Code  Lc  nmcfg.o [3]
nmcfg_read_dlme_info    0x080c4955    0xf4  Code  Lc  nmcfg.o [3]
nmcfg_read_dlme_lm_info
                        0x080c4a49    0xd4  Code  Lc  nmcfg.o [3]
nmcfg_read_link_setting
                        0x080c4b41    0xc6  Code  Lc  nmcfg.o [3]
nmcfg_read_max_token_hold
                        0x080c4b1d    0x22  Code  Lc  nmcfg.o [3]
nmcfg_read_obj          0x080c4053   0x1f4  Code  Gb  nmcfg.o [3]
nmcfg_read_plme_characteristics
                        0x080c4c0d    0x8a  Code  Lc  nmcfg.o [3]
nmcfg_read_plme_info    0x080c4d19    0x70  Code  Lc  nmcfg.o [3]
nmcfg_read_stack_cap    0x080c43f9    0xce  Code  Lc  nmcfg.o [3]
nmcfg_read_vcr_dynamic_entry
                        0x080c481d    0xbc  Code  Lc  nmcfg.o [3]
nmcfg_read_vcr_static_entry
                        0x080c4585   0x296  Code  Lc  nmcfg.o [3]
nmcfg_read_vcrl_char    0x080c44c9    0xba  Code  Lc  nmcfg.o [3]
nmcfg_store_prim_lm_flag
                        0x080c4e85    0x32  Code  Gb  nmcfg.o [3]
nmcfg_update_active     0x2000a1fc     0x1  Data  Gb  nmcfg.o [3]
nmcfg_write_boot_funct_class
                        0x080c4eed    0x4e  Code  Lc  nmcfg.o [3]
nmcfg_write_dlme_lm_info
                        0x080c4d89    0x5a  Code  Lc  nmcfg.o [3]
nmcfg_write_link_setting
                        0x080c4f3d    0x3c  Code  Lc  nmcfg.o [3]
nmcfg_write_max_token_hold
                        0x080c4eb7    0x36  Code  Lc  nmcfg.o [3]
nmcfg_write_obj         0x080c4247   0x132  Code  Gb  nmcfg.o [3]
nmcfg_write_prim_lm_flag
                        0x080c4de3    0x82  Code  Lc  nmcfg.o [3]
nmdom_cst               0x200124e0    0x44  Data  Lc  nmdom.o [3]
nmdom_cst_load_handler  0x080c3e71   0x110  Code  Lc  nmdom.o [3]
nmdom_cst_start_handler
                        0x080c3cc9   0x1a8  Code  Lc  nmdom.o [3]
nmdom_cst_term_handler  0x080c3f81    0x84  Code  Lc  nmdom.o [3]
nmdom_domain            0x20012554   0x488  Data  Lc  nmdom.o [3]
nmdom_eep_las_cfg_id    0x2001254c     0x1  Data  Lc  nmdom.o [3]
nmdom_get_dom_state     0x080c380f    0x14  Code  Gb  nmdom.o [3]
nmdom_handle_download_ind
                        0x080c3abf   0x20a  Code  Gb  nmdom.o [3]
nmdom_init              0x080c3735     0x2  Code  Gb  nmdom.o [3]
nmdom_is_las_dom        0x080c3803     0xc  Code  Gb  nmdom.o [3]
nmdom_las_ready         0x080c389d    0x74  Code  Lc  nmdom.o [3]
nmdom_mib_vcr_aborted   0x080c4005    0x24  Code  Gb  nmdom.o [3]
nmdom_read_schedule_objects
                        0x080c3911   0x1ae  Code  Gb  nmdom.o [3]
nmdom_start             0x080c3737    0xcc  Code  Gb  nmdom.o [3]
nmdom_write_schedule_vers
                        0x080c3823    0x7a  Code  Gb  nmdom.o [3]
nmif_fms_response       0x20010fd0    0x14  Data  Lc  nmif.o [3]
nmif_gen_neg_res        0x080c36ad    0x7a  Code  Lc  nmif.o [3]
nmif_gen_response       0x080c3685    0x26  Code  Lc  nmif.o [3]
nmif_handle_ind         0x080c34ed   0x16c  Code  Gb  nmif.o [3]
nmif_handle_pend_write  0x080c3659    0x2c  Code  Gb  nmif.o [3]
nmif_pend_res           0x20010fcc     0x4  Data  Lc  nmif.o [3]
nmif_response           0x20010fe4     0x4  Data  Gb  nmif.o [3]
nmod_check_obj_descr    0x080c3049    0x26  Code  Gb  nmod.o [3]
nmod_encode_access      0x080c33cd    0x12  Code  Lc  nmod.o [3]
nmod_encode_array       0x080c32d9    0x38  Code  Lc  nmod.o [3]
nmod_encode_domain      0x080c3341    0x8c  Code  Lc  nmod.o [3]
nmod_encode_dt          0x080c3259    0x14  Code  Lc  nmod.o [3]
nmod_encode_dt_sd       0x080c326d    0x38  Code  Lc  nmod.o [3]
nmod_encode_obj_descr   0x080c3071    0xb4  Code  Lc  nmod.o [3]
nmod_encode_obj_descr_hdr
                        0x080c33df    0x56  Code  Lc  nmod.o [3]
nmod_encode_od_hdr      0x080c3199    0xc0  Code  Lc  nmod.o [3]
nmod_encode_record      0x080c3311    0x30  Code  Lc  nmod.o [3]
nmod_encode_svar        0x080c32a5    0x34  Code  Lc  nmod.o [3]
nmod_get_init_res_info  0x080c2e9f    0x16  Code  Gb  nmod.o [3]
nmod_get_obj_descr      0x080c3435    0x82  Code  Lc  nmod.o [3]
nmod_get_od             0x080c2f51    0xf8  Code  Gb  nmod.o [3]
nmod_get_od_len         0x080c3125    0x74  Code  Lc  nmod.o [3]
nmod_handle_identify_ind
                        0x080c2ed1    0x80  Code  Gb  nmod.o [3]
nmod_handle_status_ind  0x080c2eb5    0x1c  Code  Gb  nmod.o [3]
nmod_init               0x080c2e75    0x2a  Code  Gb  nmod.o [3]
nmod_mib_data           0x20012a08    0x88  Data  Lc  nmod.o [3]
nmod_read_dir           0x080c4391    0x68  Code  Lc  nmcfg.o [3]
nmvcr_clear_addr_flag   0x20012ac2     0x1  Data  Lc  nmvcr.o [3]
nmvcr_disable_vcr_list  0x080c2b27    0x3c  Code  Gb  nmvcr.o [3]
nmvcr_enable_vcr_list   0x080c2af9    0x14  Code  Gb  nmvcr.o [3]
nmvcr_get_conn_descr    0x080c2c3d     0x4  Code  Gb  nmvcr.o [3]
nmvcr_get_dyn_entry     0x080c2c49    0x24  Code  Gb  nmvcr.o [3]
nmvcr_get_stat_entry    0x080c2c41     0x8  Code  Gb  nmvcr.o [3]
nmvcr_handle_init_ind   0x080c2b0d    0x1a  Code  Gb  nmvcr.o [3]
nmvcr_init              0x080c2aed     0xc  Code  Gb  nmvcr.o [3]
nmvcr_init_nm_conn      0x080c2c6d   0x1f4  Code  Lc  nmvcr.o [3]
nmvcr_new_vcr           0x20012ac0     0x1  Data  Lc  nmvcr.o [3]
nmvcr_start_vcr         0x20012ac1     0x1  Data  Lc  nmvcr.o [3]
nmvcr_stop_vcr_disable  0x080c2b63    0x12  Code  Gb  nmvcr.o [3]
nmvcr_vcr_active        0x20012ac4     0x1  Data  Lc  nmvcr.o [3]
nmvcr_vcr_update_active
                        0x20012ac3     0x1  Data  Lc  nmvcr.o [3]
nmvcr_w4_disable_vcr_list
                        0x080c2bd9    0x28  Code  Gb  nmvcr.o [3]
nmvcr_w4_disable_vcr_list_without_deleting
                        0x080c2c01     0x8  Code  Gb  nmvcr.o [3]
nmvcr_w4_new_vcr_entry  0x080c2c09    0x34  Code  Gb  nmvcr.o [3]
nmvcr_write_vcr_entry   0x080c2b75    0x64  Code  Gb  nmvcr.o [3]
no_alert_desc           0x2000743b     0x1  Data  Gb  fbs_alt.o [5]
no_of_mvc_elem          0x20009dd0     0x2  Data  Lc  fbs_mvc.o [5]
notnormal               0x0809f7d1    0x14  Code  Lc  mndoswff.o [1]
null_obj                0x080923e2     0x1  Data  Lc  mib.o [3]
null_object             0x080af9a8     0x1  Data  Lc  fbs_vfd.o [5]
null_object             0x200129f8     0x4  Data  Lc  nmod.o [3]
nv_block_list           0x20007c14   0x110  Data  Lc  fbs_nv.o [5]
nv_ram_update_called    0x20007afc     0x4  Data  Lc  fbs_nv.o [5]
obj_0                   0x080923e4    0x14  Data  Lc  mib.o [3]
obj_1                   0x080923f8    0x14  Data  Lc  mib.o [3]
obj_14                  0x08092484    0x14  Data  Lc  mib.o [3]
obj_16                  0x08092498    0x14  Data  Lc  mib.o [3]
obj_2                   0x0809240c    0x14  Data  Lc  mib.o [3]
obj_7                   0x08092448    0x14  Data  Lc  mib.o [3]
obj_capability          0x08092520    0x10  Data  Lc  mib.o [3]
obj_cfg_link_setting    0x080925f0    0x10  Data  Lc  mib.o [3]
obj_channel_states      0x08092640    0x14  Data  Lc  mib.o [3]
obj_current_link_setting
                        0x080925e0    0x10  Data  Lc  mib.o [3]
obj_dir                 0x2000879c    0x3c  Data  Gb  fbs_vfd.o [5]
obj_dlme_basic_charac   0x08092560    0x10  Data  Lc  mib.o [3]
obj_dlme_basic_info     0x08092570    0x10  Data  Lc  mib.o [3]
obj_dlme_lm_capability  0x08092580    0x14  Data  Lc  mib.o [3]
obj_dlme_lm_info        0x08092594    0x10  Data  Lc  mib.o [3]
obj_domain              0x08092510    0x10  Data  Lc  mib.o [3]
obj_domain_descr        0x080924f0    0x10  Data  Lc  mib.o [3]
obj_domain_header       0x08092500    0x10  Data  Lc  mib.o [3]
obj_ds_1                0x08091764     0xd  Data  Lc  mib.o [3]
obj_ds_10               0x080917b2     0xd  Data  Lc  mib.o [3]
obj_ds_14               0x080917bf     0xd  Data  Lc  mib.o [3]
obj_ds_21               0x080917cc     0xd  Data  Lc  mib.o [3]
obj_ds_4                0x08091771     0xd  Data  Lc  mib.o [3]
obj_ds_5                0x0809177e     0xd  Data  Lc  mib.o [3]
obj_ds_6                0x0809178b     0xd  Data  Lc  mib.o [3]
obj_ds_7                0x08091798     0xd  Data  Lc  mib.o [3]
obj_ds_9                0x080917a5     0xd  Data  Lc  mib.o [3]
obj_dwnld_property      0x080924e0    0x10  Data  Lc  mib.o [3]
obj_fb_start            0x080924d0    0x10  Data  Lc  mib.o [3]
obj_las_characteristics
                        0x08092600    0x10  Data  Lc  mib.o [3]
obj_las_descriptor      0x08092610    0x10  Data  Lc  mib.o [3]
obj_las_dom             0x08092620    0x10  Data  Lc  mib.o [3]
obj_live_list_status    0x080925b8    0x14  Data  Lc  mib.o [3]
obj_max_token_hold_time
                        0x080925cc    0x14  Data  Lc  mib.o [3]
obj_plme_charac         0x08092630    0x10  Data  Lc  mib.o [3]
obj_plme_info           0x08092654    0x10  Data  Lc  mib.o [3]
obj_primary_lm          0x080925a4    0x14  Data  Lc  mib.o [3]
obj_sched_vers          0x080924bc    0x14  Data  Lc  mib.o [3]
obj_tv                  0x08092434    0x14  Data  Lc  mib.o [3]
obj_u32                 0x08092420    0x14  Data  Lc  mib.o [3]
obj_u8                  0x0809245c    0x14  Data  Lc  mib.o [3]
obj_u8_r                0x08092470    0x14  Data  Lc  mib.o [3]
obj_vcr_dyn             0x08092550    0x10  Data  Lc  mib.o [3]
obj_vcr_list_charac     0x08092530    0x10  Data  Lc  mib.o [3]
obj_vcr_stat            0x08092540    0x10  Data  Lc  mib.o [3]
obj_vfd_ref             0x080924ac    0x10  Data  Lc  mib.o [3]
object_1                0x08090598     0xd  Data  Lc  fbs_vfd.o [5]
object_10               0x0809060d     0xd  Data  Lc  fbs_vfd.o [5]
object_11               0x0809061a     0xd  Data  Lc  fbs_vfd.o [5]
object_12               0x08090627     0xd  Data  Lc  fbs_vfd.o [5]
object_13               0x08090634     0xd  Data  Lc  fbs_vfd.o [5]
object_14               0x08090641     0xd  Data  Lc  fbs_vfd.o [5]
object_2                0x080905a5     0xd  Data  Lc  fbs_vfd.o [5]
object_21               0x0809064e     0xd  Data  Lc  fbs_vfd.o [5]
object_3                0x080905b2     0xd  Data  Lc  fbs_vfd.o [5]
object_4                0x080905bf     0xd  Data  Lc  fbs_vfd.o [5]
object_5                0x080905cc     0xd  Data  Lc  fbs_vfd.o [5]
object_6                0x080905d9     0xd  Data  Lc  fbs_vfd.o [5]
object_7                0x080905e6     0xd  Data  Lc  fbs_vfd.o [5]
object_8                0x080905f3     0xd  Data  Lc  fbs_vfd.o [5]
object_9                0x08090600     0xd  Data  Lc  fbs_vfd.o [5]
object_dict_aifb        0x08081630    0x98  Data  Gb  aifb.o [1]
object_dict_aofb        0x080821e4    0x80  Data  Gb  aofb.o [1]
object_dict_arfb        0x08082f08    0x98  Data  Gb  arfb.o [1]
object_dict_csfb        0x08083884    0x60  Data  Gb  csfb.o [1]
object_dict_difb        0x0808422c    0x68  Data  Gb  difb.o [1]
object_dict_dofb        0x08084c44    0x70  Data  Gb  dofb.o [1]
object_dict_ds          0x080af538    0x68  Data  Lc  fbs_vfd.o [5]
object_dict_dt          0x080af9ac    0x54  Data  Lc  fbs_vfd.o [5]
object_dict_ext_ds      0x0808f2dc    0xd0  Data  Gb  spec_ds.o [1]
object_dict_isfb        0x0808623c    0x68  Data  Gb  isfb.o [1]
object_dict_maifb       0x08086a30    0x4c  Data  Gb  maifb.o [1]
object_dict_osfb        0x08087404    0x68  Data  Gb  osfb.o [1]
object_dict_pidfb       0x08088a48   0x118  Data  Gb  pidfb.o [1]
object_dict_ptb         0x0808ba2c   0x1e0  Data  Gb  ptb.o [1]
object_dict_resb        0x0808d268   0x11c  Data  Gb  resb.o [1]
object_ds00             0x0809065c    0x9a  Data  Lc  fbs_vfd.o [5]
object_ds01             0x080906f6    0x9a  Data  Lc  fbs_vfd.o [5]
object_ds02             0x08090790    0x9a  Data  Lc  fbs_vfd.o [5]
object_ds03             0x0809082a    0x9a  Data  Lc  fbs_vfd.o [5]
object_ds04             0x080908c4    0x9a  Data  Lc  fbs_vfd.o [5]
object_ds05             0x0809095e    0x9a  Data  Lc  fbs_vfd.o [5]
object_ds06             0x080909f8    0x9a  Data  Lc  fbs_vfd.o [5]
object_ds07             0x08090a92    0x9a  Data  Lc  fbs_vfd.o [5]
object_ds08             0x08090b2c    0x9a  Data  Lc  fbs_vfd.o [5]
object_ds09             0x08090bc6    0x9a  Data  Lc  fbs_vfd.o [5]
object_ds10             0x08090c60    0x9a  Data  Lc  fbs_vfd.o [5]
object_ds11             0x08090cfa    0x9a  Data  Lc  fbs_vfd.o [5]
object_ds12             0x08090d94    0x9a  Data  Lc  fbs_vfd.o [5]
object_ds13             0x08090e2e    0x9a  Data  Lc  fbs_vfd.o [5]
object_ds14             0x08090ec8    0x9a  Data  Lc  fbs_vfd.o [5]
object_ds15             0x08090f62    0x9a  Data  Lc  fbs_vfd.o [5]
object_ds16             0x08090ffc    0x9a  Data  Lc  fbs_vfd.o [5]
object_ds17             0x08091096    0x9a  Data  Lc  fbs_vfd.o [5]
object_ds18             0x08091130    0x9a  Data  Lc  fbs_vfd.o [5]
object_ds19             0x080911ca    0x9a  Data  Lc  fbs_vfd.o [5]
object_ds20             0x08091264    0x9a  Data  Lc  fbs_vfd.o [5]
object_ds21             0x080912fe    0x9a  Data  Lc  fbs_vfd.o [5]
object_ds22             0x08091398    0x9a  Data  Lc  fbs_vfd.o [5]
object_ds23             0x08091432    0x9a  Data  Lc  fbs_vfd.o [5]
object_ds24             0x080914cc    0x9a  Data  Lc  fbs_vfd.o [5]
object_ds25             0x08091566    0x9a  Data  Lc  fbs_vfd.o [5]
od_blk_desc             0x20008954   0x100  Data  Gb  fbs_vfd.o [5]
od_blk_section          0x20008854   0x100  Data  Gb  fbs_vfd.o [5]
od_end1                 0x200129f4     0x1  Data  Lc  nmod.o [3]
od_end2                 0x200129f5     0x1  Data  Lc  nmod.o [3]
od_end3                 0x200129fc     0x2  Data  Lc  nmod.o [3]
od_hdr                  0x08091750    0x14  Data  Lc  mib.o [3]
od_hdr_ptr              0x20012a00     0x4  Data  Lc  nmod.o [3]
od_header               0x200087d8    0x14  Data  Gb  fbs_vfd.o [5]
od_mvc_list_desc        0x20009cd4    0x80  Data  Gb  fbs_vfd.o [5]
od_mvc_list_section     0x200087ec     0x8  Data  Gb  fbs_vfd.o [5]
od_obj_section          0x20008824    0x30  Data  Gb  fbs_vfd.o [5]
od_trend_desc           0x200087f8     0x4  Data  Gb  fbs_vfd.o [5]
od_type_section         0x200087fc    0x28  Data  Gb  fbs_vfd.o [5]
od_view_desc            0x20008b54  0x1180  Data  Gb  fbs_vfd.o [5]
od_view_section         0x20008a54   0x100  Data  Gb  fbs_vfd.o [5]
old_fdc_time            0x20010ff0     0x4  Data  Lc  faltim.o [3]
osfb_1                  0x20003b84   0x118  Data  Gb  instance.o [1]
osfb_1_dft              0x080857bc    0x50  Data  Gb  instance.o [1]
osfb_object             0x08086cdc    0x34  Data  Lc  osfb.o [1]
osfb_object_alert_key   0x08086dac    0x34  Data  Lc  osfb.o [1]
osfb_object_bal_time    0x08087120    0x34  Data  Lc  osfb.o [1]
osfb_object_bkcal_in_1  0x080870b8    0x34  Data  Lc  osfb.o [1]
osfb_object_bkcal_in_2  0x080870ec    0x34  Data  Lc  osfb.o [1]
osfb_object_bkcal_out   0x08086fe8    0x34  Data  Lc  osfb.o [1]
osfb_object_block_alm   0x080871bc    0x34  Data  Lc  osfb.o [1]
osfb_object_block_err   0x08086e14    0x34  Data  Lc  osfb.o [1]
osfb_object_block_err_desc_1
                        0x080871f0    0x34  Data  Lc  osfb.o [1]
osfb_object_cas_in      0x08086fb4    0x34  Data  Lc  osfb.o [1]
osfb_object_grant_deny  0x08086f4c    0x34  Data  Lc  osfb.o [1]
osfb_object_hystval     0x08087154    0x34  Data  Lc  osfb.o [1]
osfb_object_in_array    0x0808701c    0x34  Data  Lc  osfb.o [1]
osfb_object_lockval     0x08087084    0x34  Data  Lc  osfb.o [1]
osfb_object_mode_blk    0x08086de0    0x34  Data  Lc  osfb.o [1]
osfb_object_out_1       0x08086e7c    0x34  Data  Lc  osfb.o [1]
osfb_object_out_1_range
                        0x08086ee4    0x34  Data  Lc  osfb.o [1]
osfb_object_out_2       0x08086eb0    0x34  Data  Lc  osfb.o [1]
osfb_object_out_2_range
                        0x08086f18    0x34  Data  Lc  osfb.o [1]
osfb_object_out_array   0x08087050    0x34  Data  Lc  osfb.o [1]
osfb_object_sp          0x08086e48    0x34  Data  Lc  osfb.o [1]
osfb_object_st_rev      0x08086d10    0x34  Data  Lc  osfb.o [1]
osfb_object_status_opts
                        0x08086f80    0x34  Data  Lc  osfb.o [1]
osfb_object_strategy    0x08086d78    0x34  Data  Lc  osfb.o [1]
osfb_object_tag_desc    0x08086d44    0x34  Data  Lc  osfb.o [1]
osfb_object_update_evt  0x08087188    0x34  Data  Lc  osfb.o [1]
osfb_object_view_1_1    0x08087224    0x78  Data  Gb  osfb.o [1]
osfb_object_view_2_1    0x0808729c    0x78  Data  Gb  osfb.o [1]
osfb_object_view_3_1    0x08087314    0x78  Data  Gb  osfb.o [1]
osfb_object_view_4_1    0x0808738c    0x78  Data  Gb  osfb.o [1]
osfb_param_dir          0x08086ba4   0x138  Data  Gb  osfb.o [1]
osif_NotifyWatchdog     0x080951fd    0x30  Code  Lc  osif_tsk.o [1]
osif_TaskRunner         0x08095269    0x72  Code  Lc  osif_tsk.o [1]
osif_TickleWatchdog     0x08095185    0x78  Code  Gb  osif_tsk.o [1]
osif_WaitAppProcess     0x080ab54d    0x2e  Code  Lc  mn_factory_defaults.o [1]
osif_clear_event        0x0809566b    0xa6  Code  Gb  osif_tsk.o [1]
osif_create_task        0x080952db   0x18e  Code  Gb  osif_tsk.o [1]
osif_create_timer       0x08099a83    0xbe  Code  Gb  osif_tim.o [1]
osif_disable_all_tasks  0x08095573     0xc  Code  Gb  osif_tsk.o [1]
osif_disable_task       0x080954b3    0x5c  Code  Gb  osif_tsk.o [1]
osif_enable_all_tasks   0x0809557f     0x4  Code  Gb  osif_tsk.o [1]
osif_enable_task        0x0809550f    0x64  Code  Gb  osif_tsk.o [1]
osif_free               0x080955c5    0x18  Code  Gb  osif_tsk.o [1]
osif_get_current_task_id
                        0x08095473    0x36  Code  Gb  osif_tsk.o [1]
osif_get_ms_since       0x08099ca3     0x8  Code  Gb  osif_tim.o [1]
osif_get_system_time    0x08099c99     0x4  Code  Gb  osif_tim.o [1]
osif_get_time_in_ms     0x08099c9d     0x6  Code  Gb  osif_tim.o [1]
osif_init               0x08095077   0x10e  Code  Gb  osif_tsk.o [1]
osif_malloc             0x080955ab    0x1a  Code  Gb  osif_tsk.o [1]
osif_set_event          0x08095711    0x8e  Code  Gb  osif_tsk.o [1]
osif_start_timer        0x08099b41    0xce  Code  Gb  osif_tim.o [1]
osif_stop_timer         0x08099c0f    0x8a  Code  Gb  osif_tim.o [1]
osif_tim_init           0x08099939    0x3e  Code  Gb  osif_tim.o [1]
osif_wait_event         0x080955dd    0x8e  Code  Gb  osif_tsk.o [1]
osif_wait_event_byTCB   0x08095245    0x24  Code  Lc  osif_tsk.o [1]
pConnDsc                0x2000a628     0x4  Data  Gb  dll_bas.o [3]
pH                      0x200018ec    0x20  Data  Lc  mn_fwdl.o [1]
pMsgQueue               0x200124dc     0x4  Data  Lc  dll_ltx.o [3]
pNxtData                0x20012434     0x4  Data  Lc  dll_drx.o [3]
pRcvData                0x20012430     0x4  Data  Lc  dll_drx.o [3]
pRcvMsgBlk              0x2000a62c     0x4  Data  Gb  dll_bas.o [3]
pSndDc                  0x2001242c     0x4  Data  Lc  dll_drx.o [3]
pVerString              0x08090418     0x4  Data  Gb  mnhart2ff.o [1]
p_b_instance            0x2000147c     0x4  Data  Lc  appl_alert.o [1]
p_fbs_fbif_dict         0x200074c0     0x4  Data  Gb  fbs_fbif.o [5]
p_fbsnv_resb            0x20007d64     0x4  Data  Lc  fbs_nv.o [5]
p_nmdom_nv_las_cfg      0x20012550     0x4  Data  Lc  nmdom.o [3]
p_nv_dll_base_cfg       0x2000a284     0x4  Data  Gb  dll_bas.o [3]
p_nv_las_cfg            0x2000a240     0x4  Data  Gb  dll_cfg.o [3]
p_nv_lm_data_cfg        0x2000a23c     0x4  Data  Gb  dll_cfg.o [3]
p_nv_lm_info_cfg        0x2000a238     0x4  Data  Gb  dll_cfg.o [3]
p_resource              0x0808093c     0x4  Data  Gb  ffbl_res.o [1]
pack_feat               0x080be1fc    0x10  Data  Lc  falvcr.o [3]
payLdFlag               0x20004b5c     0x1  Data  Lc  hm.o [1]
pcrc                    0x0809041c     0x4  Data  Gb  mnhart2ff.o [1]
pd_tag                  0x20001390    0x20  Data  Lc  lui_ipc_variables.o [1]
pending                 0x200019fc     0x4  Data  Lc  hm.o [1]
pfF1RcvData             0x2000acd8     0x4  Data  Gb  dll_bas.o [3]
pf_fb_exec              0x20007d6c     0x4  Data  Lc  fdc.o [3]
pf_upper_tester_agent   0x20007d9c     0x4  Data  Gb  fdc.o [3]
pgbase                  0x200024f0     0x4  Data  Lc  stm_flash.o [1]
phInfo                  0x20001194     0x4  Data  Lc  mn_fwdl.o [1]
pid_algo                0x080aab25   0x24c  Code  Gb  controller_pid.o [1]
pid_back_calc_para      0x080ab3e9    0x3e  Code  Lc  controller_pid.o [1]
pid_check_convert_to_i_pd
                        0x080ab211    0xf0  Code  Lc  controller_pid.o [1]
pid_check_convert_to_ideal
                        0x080aaeb3   0x102  Code  Lc  controller_pid.o [1]
pid_check_convert_to_ip_d
                        0x080ab30d    0xce  Code  Lc  controller_pid.o [1]
pid_check_convert_to_parallel
                        0x080ab101   0x110  Code  Lc  controller_pid.o [1]
pid_check_convert_to_series
                        0x080aafb5   0x142  Code  Lc  controller_pid.o [1]
pid_control             0x080aab11     0xa  Code  Gb  ffbl_krn.o [1]
pid_prm                 0x080aad71   0x142  Code  Gb  controller_pid.o [1]
pid_re_calc             0x080aab1b     0xa  Code  Gb  ffbl_krn.o [1]
pidfb_1                 0x200035cc   0x26c  Data  Gb  instance.o [1]
pidfb_1_dft             0x080856cc    0x50  Data  Gb  instance.o [1]
pidfb_2                 0x20003838   0x26c  Data  Gb  instance.o [1]
pidfb_2_dft             0x0808571c    0x50  Data  Gb  instance.o [1]
pidfb_object            0x08087a30    0x34  Data  Lc  pidfb.o [1]
pidfb_object_ack_option
                        0x08088388    0x34  Data  Lc  pidfb.o [1]
pidfb_object_alarm_hys  0x080883bc    0x34  Data  Lc  pidfb.o [1]
pidfb_object_alarm_sum  0x08088354    0x34  Data  Lc  pidfb.o [1]
pidfb_object_alert_key  0x08087b00    0x34  Data  Lc  pidfb.o [1]
pidfb_object_algorithm  0x080887cc    0x34  Data  Lc  pidfb.o [1]
pidfb_object_bal_time   0x08087f44    0x34  Data  Lc  pidfb.o [1]
pidfb_object_bkcal_hys  0x08088048    0x34  Data  Lc  pidfb.o [1]
pidfb_object_bkcal_in   0x08087fac    0x34  Data  Lc  pidfb.o [1]
pidfb_object_bkcal_out  0x0808807c    0x34  Data  Lc  pidfb.o [1]
pidfb_object_block_alm  0x08088320    0x34  Data  Lc  pidfb.o [1]
pidfb_object_block_err  0x08087b68    0x34  Data  Lc  pidfb.o [1]
pidfb_object_block_err_desc_1
                        0x08088798    0x34  Data  Lc  pidfb.o [1]
pidfb_object_bypass     0x08087da4    0x34  Data  Lc  pidfb.o [1]
pidfb_object_cas_in     0x08087dd8    0x34  Data  Lc  pidfb.o [1]
pidfb_object_control_opts
                        0x08087cd4    0x34  Data  Lc  pidfb.o [1]
pidfb_object_dv_hi_alm  0x08088730    0x34  Data  Lc  pidfb.o [1]
pidfb_object_dv_hi_lim  0x080885c4    0x34  Data  Lc  pidfb.o [1]
pidfb_object_dv_hi_pri  0x08088590    0x34  Data  Lc  pidfb.o [1]
pidfb_object_dv_lo_alm  0x08088764    0x34  Data  Lc  pidfb.o [1]
pidfb_object_dv_lo_lim  0x0808862c    0x34  Data  Lc  pidfb.o [1]
pidfb_object_dv_lo_pri  0x080885f8    0x34  Data  Lc  pidfb.o [1]
pidfb_object_ff_gain    0x080882b8    0x34  Data  Lc  pidfb.o [1]
pidfb_object_ff_scale   0x08088284    0x34  Data  Lc  pidfb.o [1]
pidfb_object_ff_val     0x08088250    0x34  Data  Lc  pidfb.o [1]
pidfb_object_gain       0x08087edc    0x34  Data  Lc  pidfb.o [1]
pidfb_object_grant_deny
                        0x08087ca0    0x34  Data  Lc  pidfb.o [1]
pidfb_object_hi_alm     0x08088694    0x34  Data  Lc  pidfb.o [1]
pidfb_object_hi_hi_alm  0x08088660    0x34  Data  Lc  pidfb.o [1]
pidfb_object_hi_hi_lim  0x08088424    0x34  Data  Lc  pidfb.o [1]
pidfb_object_hi_hi_pri  0x080883f0    0x34  Data  Lc  pidfb.o [1]
pidfb_object_hi_lim     0x0808848c    0x34  Data  Lc  pidfb.o [1]
pidfb_object_hi_pri     0x08088458    0x34  Data  Lc  pidfb.o [1]
pidfb_object_in         0x08087d3c    0x34  Data  Lc  pidfb.o [1]
pidfb_object_lo_alm     0x080886c8    0x34  Data  Lc  pidfb.o [1]
pidfb_object_lo_lim     0x080884f4    0x34  Data  Lc  pidfb.o [1]
pidfb_object_lo_lo_alm  0x080886fc    0x34  Data  Lc  pidfb.o [1]
pidfb_object_lo_lo_lim  0x0808855c    0x34  Data  Lc  pidfb.o [1]
pidfb_object_lo_lo_pri  0x08088528    0x34  Data  Lc  pidfb.o [1]
pidfb_object_lo_pri     0x080884c0    0x34  Data  Lc  pidfb.o [1]
pidfb_object_mode_blk   0x08087b34    0x34  Data  Lc  pidfb.o [1]
pidfb_object_out        0x08087c04    0x34  Data  Lc  pidfb.o [1]
pidfb_object_out_hi_lim
                        0x08087fe0    0x34  Data  Lc  pidfb.o [1]
pidfb_object_out_lo_lim
                        0x08088014    0x34  Data  Lc  pidfb.o [1]
pidfb_object_out_scale  0x08087c6c    0x34  Data  Lc  pidfb.o [1]
pidfb_object_pv         0x08087b9c    0x34  Data  Lc  pidfb.o [1]
pidfb_object_pv_ftime   0x08087d70    0x34  Data  Lc  pidfb.o [1]
pidfb_object_pv_scale   0x08087c38    0x34  Data  Lc  pidfb.o [1]
pidfb_object_rate       0x08087f78    0x34  Data  Lc  pidfb.o [1]
pidfb_object_rcas_in    0x080880b0    0x34  Data  Lc  pidfb.o [1]
pidfb_object_rcas_out   0x0808814c    0x34  Data  Lc  pidfb.o [1]
pidfb_object_reset      0x08087f10    0x34  Data  Lc  pidfb.o [1]
pidfb_object_rout_in    0x080880e4    0x34  Data  Lc  pidfb.o [1]
pidfb_object_rout_out   0x08088180    0x34  Data  Lc  pidfb.o [1]
pidfb_object_shed_opt   0x08088118    0x34  Data  Lc  pidfb.o [1]
pidfb_object_sp         0x08087bd0    0x34  Data  Lc  pidfb.o [1]
pidfb_object_sp_hi_lim  0x08087e74    0x34  Data  Lc  pidfb.o [1]
pidfb_object_sp_lo_lim  0x08087ea8    0x34  Data  Lc  pidfb.o [1]
pidfb_object_sp_rate_dn
                        0x08087e0c    0x34  Data  Lc  pidfb.o [1]
pidfb_object_sp_rate_up
                        0x08087e40    0x34  Data  Lc  pidfb.o [1]
pidfb_object_st_rev     0x08087a64    0x34  Data  Lc  pidfb.o [1]
pidfb_object_status_opts
                        0x08087d08    0x34  Data  Lc  pidfb.o [1]
pidfb_object_strategy   0x08087acc    0x34  Data  Lc  pidfb.o [1]
pidfb_object_tag_desc   0x08087a98    0x34  Data  Lc  pidfb.o [1]
pidfb_object_tfpd       0x08088800    0x34  Data  Lc  pidfb.o [1]
pidfb_object_tfpid      0x08088834    0x34  Data  Lc  pidfb.o [1]
pidfb_object_trk_in_d   0x080881e8    0x34  Data  Lc  pidfb.o [1]
pidfb_object_trk_scale  0x080881b4    0x34  Data  Lc  pidfb.o [1]
pidfb_object_trk_val    0x0808821c    0x34  Data  Lc  pidfb.o [1]
pidfb_object_update_evt
                        0x080882ec    0x34  Data  Lc  pidfb.o [1]
pidfb_object_view_1_1   0x08088868    0x78  Data  Gb  pidfb.o [1]
pidfb_object_view_2_1   0x080888e0    0x78  Data  Gb  pidfb.o [1]
pidfb_object_view_3_1   0x08088958    0x78  Data  Gb  pidfb.o [1]
pidfb_object_view_4_1   0x080889d0    0x78  Data  Gb  pidfb.o [1]
pidfb_param_dir         0x080876e8   0x348  Data  Gb  pidfb.o [1]
plusInf                 0x080aab08     0x4  Data  Gb  ffbl_pid.o [1]
pn_addr                 0x20012abe     0x1  Data  Gb  dll_bas.o [3]
pn_frame                0x2000a258     0x4  Data  Gb  dll_bas.o [3]
pow                     0x08093577     0xe  Code  Gb  pow.o [6]
pr_frame                0x2000ae4c     0xc  Data  Gb  dll_bas.o [3]
prepend_alloc           0x08096513   0x320  Code  Lc  dlmalloc.o [4]
prev_result             0x200011df     0x1  Data  Lc  eep_if.o [1]
pri_header              0x20004a58    0x24  Data  Lc  appl_svi_swdl.o [1]
process_TrapWatchdog    0x0809522d    0x16  Code  Gb  osif_tsk.o [1]
pt_count                0x200124d1     0x1  Data  Lc  dll_lrx.o [3]
pt_frame                0x2000a254     0x4  Data  Gb  dll_bas.o [3]
ptb_1                   0x20003c9c   0xaa4  Data  Gb  instance.o [1]
ptb_1_dft               0x0808580c    0x50  Data  Gb  instance.o [1]
ptb_JamDynParamStatus   0x0809ce63    0x36  Code  Lc  appl_ptb.o [1]
ptb_object              0x08089bb4    0x34  Data  Lc  ptb.o [1]
ptb_object_accessory    0x0808b2a8    0x34  Data  Lc  ptb.o [1]
ptb_object_activate_control_set
                        0x08089f5c    0x34  Data  Lc  ptb.o [1]
ptb_object_active_control_set
                        0x08089f90    0x34  Data  Lc  ptb.o [1]
ptb_object_actual_position
                        0x0808ae64    0x34  Data  Lc  ptb.o [1]
ptb_object_actuator_1   0x0808b06c    0x34  Data  Lc  ptb.o [1]
ptb_object_actuator_2   0x0808b0a0    0x34  Data  Lc  ptb.o [1]
ptb_object_actuator_3   0x0808b0d4    0x34  Data  Lc  ptb.o [1]
ptb_object_actuator_a_pressure
                        0x0808a6e0    0x34  Data  Lc  ptb.o [1]
ptb_object_actuator_b_pressure
                        0x0808a714    0x34  Data  Lc  ptb.o [1]
ptb_object_actuator_info
                        0x0808b108    0x34  Data  Lc  ptb.o [1]
ptb_object_advanced     0x0808b3ac    0x34  Data  Lc  ptb.o [1]
ptb_object_alert_action
                        0x0808aecc    0x34  Data  Lc  ptb.o [1]
ptb_object_alert_counters
                        0x0808af34    0x34  Data  Lc  ptb.o [1]
ptb_object_alert_key    0x08089c84    0x34  Data  Lc  ptb.o [1]
ptb_object_alert_log    0x0808af68    0x34  Data  Lc  ptb.o [1]
ptb_object_alert_state  0x0808af00    0x34  Data  Lc  ptb.o [1]
ptb_object_app_mode     0x0808ad2c    0x34  Data  Lc  ptb.o [1]
ptb_object_atmospheric_pressure
                        0x0808a748    0x34  Data  Lc  ptb.o [1]
ptb_object_autotune     0x0808aa20    0x34  Data  Lc  ptb.o [1]
ptb_object_backup_control_set
                        0x08089ff8    0x34  Data  Lc  ptb.o [1]
ptb_object_block_alm    0x08089d54    0x34  Data  Lc  ptb.o [1]
ptb_object_block_err    0x08089cec    0x34  Data  Lc  ptb.o [1]
ptb_object_block_err_desc_1
                        0x0808b3e0    0x34  Data  Lc  ptb.o [1]
ptb_object_booster      0x0808b274    0x34  Data  Lc  ptb.o [1]
ptb_object_char_selection
                        0x0808a470    0x34  Data  Lc  ptb.o [1]
ptb_object_check_process
                        0x0808aa54    0x34  Data  Lc  ptb.o [1]
ptb_object_clear_status
                        0x0808ad94    0x34  Data  Lc  ptb.o [1]
ptb_object_complete_status
                        0x0808ad60    0x34  Data  Lc  ptb.o [1]
ptb_object_current_char_points
                        0x0808a4a4    0x34  Data  Lc  ptb.o [1]
ptb_object_custom_char  0x0808a4d8    0x34  Data  Lc  ptb.o [1]
ptb_object_custom_char_points
                        0x0808a50c    0x34  Data  Lc  ptb.o [1]
ptb_object_custom_control_set
                        0x08089fc4    0x34  Data  Lc  ptb.o [1]
ptb_object_cycle_counter_a_alert
                        0x0808a29c    0x34  Data  Lc  ptb.o [1]
ptb_object_cycle_counter_b_alert
                        0x0808a2d0    0x34  Data  Lc  ptb.o [1]
ptb_object_cycle_counter_trend
                        0x0808a304    0x34  Data  Lc  ptb.o [1]
ptb_object_deviation_alert
                        0x0808a0fc    0x34  Data  Lc  ptb.o [1]
ptb_object_diagnostic_configuration
                        0x0808a9b8    0x34  Data  Lc  ptb.o [1]
ptb_object_diagnostic_data
                        0x0808a9ec    0x34  Data  Lc  ptb.o [1]
ptb_object_discrete_input
                        0x0808ac28    0x34  Data  Lc  ptb.o [1]
ptb_object_discrete_output_1_state
                        0x0808abc0    0x34  Data  Lc  ptb.o [1]
ptb_object_discrete_output_2_state
                        0x0808abf4    0x34  Data  Lc  ptb.o [1]
ptb_object_discrete_switch_1_conf
                        0x0808ac5c    0x34  Data  Lc  ptb.o [1]
ptb_object_discrete_switch_2_conf
                        0x0808ac90    0x34  Data  Lc  ptb.o [1]
ptb_object_factory_use_1
                        0x0808b004    0x34  Data  Lc  ptb.o [1]
ptb_object_factory_use_2
                        0x0808b038    0x34  Data  Lc  ptb.o [1]
ptb_object_failed_state
                        0x0808aabc    0x34  Data  Lc  ptb.o [1]
ptb_object_final_position_value
                        0x08089f28    0x34  Data  Lc  ptb.o [1]
ptb_object_final_position_value_d
                        0x0808ab24    0x34  Data  Lc  ptb.o [1]
ptb_object_final_position_value_dint
                        0x0808ab8c    0x34  Data  Lc  ptb.o [1]
ptb_object_final_value  0x08089e24    0x34  Data  Lc  ptb.o [1]
ptb_object_final_value_cutoff_hi
                        0x08089ec0    0x34  Data  Lc  ptb.o [1]
ptb_object_final_value_cutoff_lo
                        0x08089ef4    0x34  Data  Lc  ptb.o [1]
ptb_object_final_value_d
                        0x0808aaf0    0x34  Data  Lc  ptb.o [1]
ptb_object_final_value_dint
                        0x0808ab58    0x34  Data  Lc  ptb.o [1]
ptb_object_final_value_range
                        0x08089e58    0x34  Data  Lc  ptb.o [1]
ptb_object_find_stops   0x0808a950    0x34  Data  Lc  ptb.o [1]
ptb_object_ip_current_extremes
                        0x0808b378    0x34  Data  Lc  ptb.o [1]
ptb_object_ip_drive_current
                        0x0808a8b4    0x34  Data  Lc  ptb.o [1]
ptb_object_ip_drive_current_hi_alert
                        0x0808a8e8    0x34  Data  Lc  ptb.o [1]
ptb_object_ip_drive_current_lo_alert
                        0x0808a91c    0x34  Data  Lc  ptb.o [1]
ptb_object_mode_blk     0x08089cb8    0x34  Data  Lc  ptb.o [1]
ptb_object_near_closed_alert
                        0x0808a3a0    0x34  Data  Lc  ptb.o [1]
ptb_object_offline_diagnostic
                        0x0808a984    0x34  Data  Lc  ptb.o [1]
ptb_object_open_stop_adjustment
                        0x0808adc8    0x34  Data  Lc  ptb.o [1]
ptb_object_pilot_pressure
                        0x0808a77c    0x34  Data  Lc  ptb.o [1]
ptb_object_position_error_histogram
                        0x0808a3d4    0x34  Data  Lc  ptb.o [1]
ptb_object_position_error_trend
                        0x0808a338    0x34  Data  Lc  ptb.o [1]
ptb_object_position_extremes
                        0x0808b2dc    0x34  Data  Lc  ptb.o [1]
ptb_object_position_hi_alert
                        0x0808a164    0x34  Data  Lc  ptb.o [1]
ptb_object_position_hihi_alert
                        0x0808a130    0x34  Data  Lc  ptb.o [1]
ptb_object_position_histogram
                        0x0808a36c    0x34  Data  Lc  ptb.o [1]
ptb_object_position_limits
                        0x08089e8c    0x34  Data  Lc  ptb.o [1]
ptb_object_position_lo_alert
                        0x0808a198    0x34  Data  Lc  ptb.o [1]
ptb_object_position_lolo_alert
                        0x0808a1cc    0x34  Data  Lc  ptb.o [1]
ptb_object_position_transducer_type
                        0x08089dbc    0x34  Data  Lc  ptb.o [1]
ptb_object_pressure_extremes
                        0x0808b310    0x34  Data  Lc  ptb.o [1]
ptb_object_pressure_range
                        0x0808a610    0x34  Data  Lc  ptb.o [1]
ptb_object_raw_position
                        0x0808ae98    0x34  Data  Lc  ptb.o [1]
ptb_object_readback_select
                        0x0808a540    0x34  Data  Lc  ptb.o [1]
ptb_object_setpoint     0x0808ae30    0x34  Data  Lc  ptb.o [1]
ptb_object_setpoint_source
                        0x0808adfc    0x34  Data  Lc  ptb.o [1]
ptb_object_setpoint_timeout_alert
                        0x0808a408    0x34  Data  Lc  ptb.o [1]
ptb_object_st_rev       0x08089be8    0x34  Data  Lc  ptb.o [1]
ptb_object_strategy     0x08089c50    0x34  Data  Lc  ptb.o [1]
ptb_object_supply_pressure
                        0x0808a5dc    0x34  Data  Lc  ptb.o [1]
ptb_object_supply_pressure_hi_alert
                        0x0808a644    0x34  Data  Lc  ptb.o [1]
ptb_object_supply_pressure_lo_alert
                        0x0808a678    0x34  Data  Lc  ptb.o [1]
ptb_object_supply_pressure_lolo_alert
                        0x0808a6ac    0x34  Data  Lc  ptb.o [1]
ptb_object_tag_desc     0x08089c1c    0x34  Data  Lc  ptb.o [1]
ptb_object_temp_transducer_type
                        0x0808a7b0    0x34  Data  Lc  ptb.o [1]
ptb_object_temperature  0x0808a818    0x34  Data  Lc  ptb.o [1]
ptb_object_temperature_extremes
                        0x0808b344    0x34  Data  Lc  ptb.o [1]
ptb_object_temperature_hi_alert
                        0x0808a84c    0x34  Data  Lc  ptb.o [1]
ptb_object_temperature_lo_alert
                        0x0808a880    0x34  Data  Lc  ptb.o [1]
ptb_object_transducer_directory
                        0x08089d88    0x34  Data  Lc  ptb.o [1]
ptb_object_transducer_type
                        0x0808a574    0x34  Data  Lc  ptb.o [1]
ptb_object_travel       0x0808a060    0x34  Data  Lc  ptb.o [1]
ptb_object_travel_accumulation_a_alert
                        0x0808a200    0x34  Data  Lc  ptb.o [1]
ptb_object_travel_accumulation_b_alert
                        0x0808a234    0x34  Data  Lc  ptb.o [1]
ptb_object_travel_accumulation_trend
                        0x0808a268    0x34  Data  Lc  ptb.o [1]
ptb_object_travel_calibration
                        0x0808a02c    0x34  Data  Lc  ptb.o [1]
ptb_object_ui_access_control
                        0x0808acc4    0x34  Data  Lc  ptb.o [1]
ptb_object_ui_custom_configuration
                        0x0808aa88    0x34  Data  Lc  ptb.o [1]
ptb_object_ui_language  0x0808acf8    0x34  Data  Lc  ptb.o [1]
ptb_object_update_evt   0x08089d20    0x34  Data  Lc  ptb.o [1]
ptb_object_valve_body_1
                        0x0808b1a4    0x34  Data  Lc  ptb.o [1]
ptb_object_valve_body_2
                        0x0808b1d8    0x34  Data  Lc  ptb.o [1]
ptb_object_valve_body_3
                        0x0808b20c    0x34  Data  Lc  ptb.o [1]
ptb_object_valve_identification
                        0x0808b13c    0x34  Data  Lc  ptb.o [1]
ptb_object_valve_info   0x0808b240    0x34  Data  Lc  ptb.o [1]
ptb_object_valve_service
                        0x0808b170    0x34  Data  Lc  ptb.o [1]
ptb_object_view_1_1     0x0808b414    0x78  Data  Gb  ptb.o [1]
ptb_object_view_2_1     0x0808b48c    0x78  Data  Gb  ptb.o [1]
ptb_object_view_3_1     0x0808b504    0x78  Data  Gb  ptb.o [1]
ptb_object_view_3_2     0x0808b57c    0x78  Data  Gb  ptb.o [1]
ptb_object_view_3_3     0x0808b5f4    0x78  Data  Gb  ptb.o [1]
ptb_object_view_3_4     0x0808b66c    0x78  Data  Gb  ptb.o [1]
ptb_object_view_3_5     0x0808b6e4    0x78  Data  Gb  ptb.o [1]
ptb_object_view_3_6     0x0808b75c    0x78  Data  Gb  ptb.o [1]
ptb_object_view_4_1     0x0808b7d4    0x78  Data  Gb  ptb.o [1]
ptb_object_view_4_2     0x0808b84c    0x78  Data  Gb  ptb.o [1]
ptb_object_view_4_3     0x0808b8c4    0x78  Data  Gb  ptb.o [1]
ptb_object_view_4_4     0x0808b93c    0x78  Data  Gb  ptb.o [1]
ptb_object_view_4_5     0x0808b9b4    0x78  Data  Gb  ptb.o [1]
ptb_object_working_pos  0x0808a0c8    0x34  Data  Lc  ptb.o [1]
ptb_object_working_sp   0x0808a094    0x34  Data  Lc  ptb.o [1]
ptb_object_working_time_alert
                        0x0808afd0    0x34  Data  Lc  ptb.o [1]
ptb_object_working_times
                        0x0808af9c    0x34  Data  Lc  ptb.o [1]
ptb_object_xd_error_pos
                        0x08089df0    0x34  Data  Lc  ptb.o [1]
ptb_object_xd_error_pressure
                        0x0808a5a8    0x34  Data  Lc  ptb.o [1]
ptb_object_xd_error_temperature
                        0x0808a7e4    0x34  Data  Lc  ptb.o [1]
ptb_object_xd_fstate    0x0808a43c    0x34  Data  Lc  ptb.o [1]
ptb_param_dir           0x08089614   0x5a0  Data  Gb  ptb.o [1]
ptb_param_readonly      0x080a0ad8    0x30  Data  Lc  mn_advanced.o [1]
publisher_frame_sent    0x080bb52d    0x26  Code  Lc  dll_ltx.o [3]
queue                   0x200019f8     0x4  Data  Lc  hm.o [1]
rand                    0x080ac471    0xe0  Code  Gb  rand.o [4]
rb_HasRun               0x2000259e     0x1  Data  Gb  appl_res.o [1]
rcc_WDTimeout           0x08097ea1     0xc  Code  Gb  hw_init.o [1]
rcc_disable_HSI         0x08097fed     0xc  Code  Gb  hw_init.o [1]
rcc_enable_HSI          0x08097fe1     0xc  Code  Gb  hw_init.o [1]
rcvErrors               0x20004b5d     0x1  Data  Lc  hm.o [1]
rcv_buf                 0x20004a88    0x64  Data  Gb  appl_ptb.o [1]
rcv_msg                 0x0809ba2f    0xa2  Code  Lc  hm.o [1]
read_ap_directory       0x080b125d   0x18a  Code  Lc  fbs_run.o [5]
read_link_record        0x080b16ad    0xcc  Code  Lc  fbs_run.o [5]
read_trend_record       0x080b1541   0x16c  Code  Lc  fbs_run.o [5]
real_mvc_obj_desc       0x20009d54    0x34  Data  Lc  fbs_vfd.o [5]
receive_buff            0x20004cdc    0x64  Data  Lc  hm_task.o [1]
receiving_checksum      0x20004b5e     0x1  Data  Lc  hm.o [1]
recv_buffer             0x20001980    0x3c  Data  Lc  mn_fwdl_hart.o [1]
reloc                   0x20001167     0x1  Data  Lc  mn_fwdl.o [1]
relocTable              0x2000118c     0x4  Data  Lc  mn_fwdl.o [1]
relocationAmount        0x20001180     0x4  Data  Lc  mn_fwdl.o [1]
resb_1                  0x2000295c   0x288  Data  Gb  instance.o [1]
resb_1_dft              0x080852c8    0x50  Data  Gb  instance.o [1]
resb_object             0x0808c21c    0x34  Data  Lc  resb.o [1]
resb_object_ack_option  0x0808c9d4    0x34  Data  Lc  resb.o [1]
resb_object_alarm_sum   0x0808c9a0    0x34  Data  Lc  resb.o [1]
resb_object_alert_key   0x0808c2ec    0x34  Data  Lc  resb.o [1]
resb_object_block_alm   0x0808c96c    0x34  Data  Lc  resb.o [1]
resb_object_block_err   0x0808c354    0x34  Data  Lc  resb.o [1]
resb_object_block_err_desc_1
                        0x0808cfec    0x34  Data  Lc  resb.o [1]
resb_object_clr_fstate  0x0808c834    0x34  Data  Lc  resb.o [1]
resb_object_compatibility_rev
                        0x0808cfb8    0x34  Data  Lc  resb.o [1]
resb_object_confirm_time
                        0x0808c8d0    0x34  Data  Lc  resb.o [1]
resb_object_cycle_sel   0x0808c62c    0x34  Data  Lc  resb.o [1]
resb_object_cycle_type  0x0808c5f8    0x34  Data  Lc  resb.o [1]
resb_object_dd_resource
                        0x0808c3f0    0x34  Data  Lc  resb.o [1]
resb_object_dd_rev      0x0808c4c0    0x34  Data  Lc  resb.o [1]
resb_object_dev_rev     0x0808c48c    0x34  Data  Lc  resb.o [1]
resb_object_dev_type    0x0808c458    0x34  Data  Lc  resb.o [1]
resb_object_fault_state
                        0x0808c7cc    0x34  Data  Lc  resb.o [1]
resb_object_fd_check_active
                        0x0808cb74    0x34  Data  Lc  resb.o [1]
resb_object_fd_check_alm
                        0x0808cde4    0x34  Data  Lc  resb.o [1]
resb_object_fd_check_map
                        0x0808cc44    0x34  Data  Lc  resb.o [1]
resb_object_fd_check_mask
                        0x0808cd14    0x34  Data  Lc  resb.o [1]
resb_object_fd_check_pri
                        0x0808ceb4    0x34  Data  Lc  resb.o [1]
resb_object_fd_fail_active
                        0x0808cad8    0x34  Data  Lc  resb.o [1]
resb_object_fd_fail_alm
                        0x0808cd48    0x34  Data  Lc  resb.o [1]
resb_object_fd_fail_map
                        0x0808cba8    0x34  Data  Lc  resb.o [1]
resb_object_fd_fail_mask
                        0x0808cc78    0x34  Data  Lc  resb.o [1]
resb_object_fd_fail_pri
                        0x0808ce18    0x34  Data  Lc  resb.o [1]
resb_object_fd_maint_active
                        0x0808cb40    0x34  Data  Lc  resb.o [1]
resb_object_fd_maint_alm
                        0x0808cdb0    0x34  Data  Lc  resb.o [1]
resb_object_fd_maint_map
                        0x0808cc10    0x34  Data  Lc  resb.o [1]
resb_object_fd_maint_mask
                        0x0808cce0    0x34  Data  Lc  resb.o [1]
resb_object_fd_maint_pri
                        0x0808ce80    0x34  Data  Lc  resb.o [1]
resb_object_fd_offspec_active
                        0x0808cb0c    0x34  Data  Lc  resb.o [1]
resb_object_fd_offspec_alm
                        0x0808cd7c    0x34  Data  Lc  resb.o [1]
resb_object_fd_offspec_map
                        0x0808cbdc    0x34  Data  Lc  resb.o [1]
resb_object_fd_offspec_mask
                        0x0808ccac    0x34  Data  Lc  resb.o [1]
resb_object_fd_offspec_pri
                        0x0808ce4c    0x34  Data  Lc  resb.o [1]
resb_object_fd_recommen_act
                        0x0808cf1c    0x34  Data  Lc  resb.o [1]
resb_object_fd_simulate
                        0x0808cee8    0x34  Data  Lc  resb.o [1]
resb_object_fd_ver      0x0808caa4    0x34  Data  Lc  resb.o [1]
resb_object_feature_sel
                        0x0808c5c4    0x34  Data  Lc  resb.o [1]
resb_object_features    0x0808c590    0x34  Data  Lc  resb.o [1]
resb_object_free_space  0x0808c6fc    0x34  Data  Lc  resb.o [1]
resb_object_free_time   0x0808c730    0x34  Data  Lc  resb.o [1]
resb_object_grant_deny  0x0808c4f4    0x34  Data  Lc  resb.o [1]
resb_object_hard_types  0x0808c528    0x34  Data  Lc  resb.o [1]
resb_object_hardware_rev
                        0x0808cf84    0x34  Data  Lc  resb.o [1]
resb_object_itk_ver     0x0808ca70    0x34  Data  Lc  resb.o [1]
resb_object_lim_notify  0x0808c89c    0x34  Data  Lc  resb.o [1]
resb_object_manufac_id  0x0808c424    0x34  Data  Lc  resb.o [1]
resb_object_max_notify  0x0808c868    0x34  Data  Lc  resb.o [1]
resb_object_memory_size
                        0x0808c694    0x34  Data  Lc  resb.o [1]
resb_object_min_cycle_t
                        0x0808c660    0x34  Data  Lc  resb.o [1]
resb_object_mode_blk    0x0808c320    0x34  Data  Lc  resb.o [1]
resb_object_nv_cycle_t  0x0808c6c8    0x34  Data  Lc  resb.o [1]
resb_object_restart     0x0808c55c    0x34  Data  Lc  resb.o [1]
resb_object_rs_state    0x0808c388    0x34  Data  Lc  resb.o [1]
resb_object_set_fstate  0x0808c800    0x34  Data  Lc  resb.o [1]
resb_object_shed_rcas   0x0808c764    0x34  Data  Lc  resb.o [1]
resb_object_shed_rout   0x0808c798    0x34  Data  Lc  resb.o [1]
resb_object_software_rev
                        0x0808cf50    0x34  Data  Lc  resb.o [1]
resb_object_software_rev_app
                        0x0808d054    0x34  Data  Lc  resb.o [1]
resb_object_software_rev_ff
                        0x0808d020    0x34  Data  Lc  resb.o [1]
resb_object_st_rev      0x0808c250    0x34  Data  Lc  resb.o [1]
resb_object_strategy    0x0808c2b8    0x34  Data  Lc  resb.o [1]
resb_object_tag_desc    0x0808c284    0x34  Data  Lc  resb.o [1]
resb_object_test_rw     0x0808c3bc    0x34  Data  Lc  resb.o [1]
resb_object_update_evt  0x0808c938    0x34  Data  Lc  resb.o [1]
resb_object_view_1_1    0x0808d088    0x78  Data  Gb  resb.o [1]
resb_object_view_2_1    0x0808d100    0x78  Data  Gb  resb.o [1]
resb_object_view_3_1    0x0808d178    0x78  Data  Gb  resb.o [1]
resb_object_view_4_1    0x0808d1f0    0x78  Data  Gb  resb.o [1]
resb_object_write_alm   0x0808ca3c    0x34  Data  Lc  resb.o [1]
resb_object_write_lock  0x0808c904    0x34  Data  Lc  resb.o [1]
resb_object_write_pri   0x0808ca08    0x34  Data  Lc  resb.o [1]
resb_param_dir          0x0808bec8   0x354  Data  Gb  resb.o [1]
reset_OnReset           0x08097dc1    0x26  Code  Gb  stubs_app.o [1]
reset_Warmstart         0x08097da1    0x20  Code  Gb  stubs_app.o [1]
restart_shell_conf_timer
                        0x080aea95    0x3c  Code  Lc  fbs_alt.o [5]
ri_frame                0x200124d4     0x4  Data  Lc  dll_ltx.o [3]
roundf                  0x080a3b85          Code  Gb  roundf.o [6]
rr_frame                0x200124bc    0x10  Data  Lc  dll_lrx.o [3]
rt_frame                0x20008558     0x4  Data  Lc  dll_spc4.o [3]
rx_gap                  0x20001a10     0x4  Data  Lc  hm.o [1]
rx_no_token_handler     0x080b7dd0    0x58  Data  Lc  dll_lrx.o [3]
rx_state                0x20001a0c     0x4  Data  Lc  hm.o [1]
sAdvancedBuffer         0x200019c0    0x34  Data  Lc  mn_advanced.o [1]
sbscr_stack             0x200055a0   0x200  Data  Lc  osif_cfg.o [1]
sched_charac            0x20012524    0x10  Data  Lc  nmdom.o [3]
sched_descr             0x20012534    0x18  Data  Lc  nmdom.o [3]
sched_table             0x2000a1dc    0x20  Data  Lc  fbs_scd.o [5]
se_cnt_psc              0x200028e4     0x1  Data  Lc  hw_io.o [1]
sec_eeprom_check        0x20010fc0     0x4  Data  Lc  tmp_hi.o [3]
segment_holding         0x08096491    0x1a  Code  Lc  dlmalloc.o [4]
select_input            0x080a80ed   0x302  Code  Lc  ffbl_is.o [1]
selftest_FlashCrc       0x080962b5    0x5a  Code  Gb  selftest.o [1]
selftest_FlashCrcMon    0x0809630f    0x1c  Code  Gb  selftest.o [1]
selftest_Init           0x0809629b    0x1a  Code  Gb  selftest.o [1]
selftest_RamDataIntegrity
                        0x0809626d    0x2e  Code  Gb  selftest.o [1]
send_buff               0x20004c78    0x64  Data  Lc  hm_task.o [1]
send_buffer             0x20001944    0x3c  Data  Lc  mn_fwdl_hart.o [1]
send_cd2                0x080ba8cd    0x6e  Code  Lc  dll_las.o [3]
send_las_status         0x080ba8a1    0x2c  Code  Lc  dll_las.o [3]
send_pt                 0x080ba93b    0x3a  Code  Lc  dll_las.o [3]
send_tl                 0x080ba975    0x1c  Code  Lc  dll_las.o [3]
send_trend_buffer       0x20007a70    0x64  Data  Lc  fbs_run.o [5]
serial_nr               0x08092f42    0x21  Data  Lc  appl_if.o [1]
set_good_nc_substatus   0x080a7c6d    0x20  Code  Lc  ffbl_ar.o [1]
set_macrocycle          0x080babe1    0x66  Code  Lc  dll_las.o [3]
sha256_final            0x0809e3ff    0xda  Code  Gb  sha256.o [1]
sha256_init             0x0809e3ad    0x16  Code  Gb  sha256.o [1]
sha256_transform        0x0809e271   0x13c  Code  Lc  sha256.o [1]
sha256_update           0x0809e3c3    0x3c  Code  Gb  sha256.o [1]
short_var_info_array    0x080a2e90    0xe4  Data  Gb  lui_ipc_variables.o [1]
sm_adm                  0x20007e30   0x1ac  Data  Gb  sm.o [3]
sm_check_if_block_is_scheduled
                        0x080c14eb    0x36  Code  Gb  sm.o [3]
sm_check_tags           0x080c1b2b    0x40  Code  Lc  sm.o [3]
sm_clear_addr           0x080c1a6d    0x60  Code  Lc  sm.o [3]
sm_config               0x20008284    0x48  Data  Lc  sm.o [3]
sm_connections_closed   0x080c182f    0xc4  Code  Gb  sm.o [3]
sm_directory            0x080c4f78    0x28  Data  Gb  nmcfg.o [3]
sm_eep_ptr              0x20010fb4     0x8  Data  Gb  fmg.o [3]
sm_enc_reply_tag        0x080c1cf5   0x16c  Code  Gb  sm.o [3]
sm_find_tag             0x080c1c1b    0xda  Code  Lc  sm.o [3]
sm_frame                0x200082cc   0x278  Data  Lc  sm.o [3]
sm_get_scd_offset       0x080c1521    0x40  Code  Gb  sm.o [3]
sm_handle_dll_msg       0x080c15db   0x206  Code  Gb  sm.o [3]
sm_identify             0x080c18f3    0x3e  Code  Lc  sm.o [3]
sm_ind                  0x20007de0    0x14  Data  Gb  sm.o [3]
sm_init                 0x080c11cd   0x132  Code  Gb  sm.o [3]
sm_mac_in_ring          0x080c1589    0x52  Code  Gb  sm.o [3]
sm_mib                  0x20008214    0x70  Data  Gb  sm.o [3]
sm_min_macrocycle       0x20007e2c     0x4  Data  Lc  sm.o [3]
sm_monitor              0x20010ff4     0x4  Data  Lc  faltim.o [3]
sm_msg_blocks           0x20008134    0xe0  Data  Lc  sm.o [3]
sm_proc_con             0x080c17e1    0x4e  Code  Lc  sm.o [3]
sm_read_obj             0x080c1e89    0x1a  Code  Gb  sm.o [3]
sm_read_record          0x080c1ff5   0x13c  Code  Lc  sm.o [3]
sm_read_simple_var      0x080c1ea3   0x146  Code  Lc  sm.o [3]
sm_send_reply_tag       0x080c1e61    0x20  Code  Gb  sm.o [3]
sm_set_addr             0x080c1acd    0x5e  Code  Lc  sm.o [3]
sm_set_node_address     0x080c1561    0x28  Code  Lc  sm.o [3]
sm_set_operational      0x080c1b6b    0xb0  Code  Lc  sm.o [3]
sm_set_pd_tag           0x080c1931   0x13c  Code  Lc  sm.o [3]
sm_start                0x080c12ff   0x1e0  Code  Gb  sm.o [3]
sm_start_list           0x20007e20     0x4  Data  Gb  sm.o [3]
sm_struct_1             0x080917da    0x9a  Data  Lc  mib.o [3]
sm_struct_2             0x08091874    0x9a  Data  Lc  mib.o [3]
sm_struct_dom_descr     0x080919a8    0x9a  Data  Lc  mib.o [3]
sm_struct_dom_hdr       0x0809190e    0x9a  Data  Lc  mib.o [3]
sm_struct_dwnld_prop    0x08091a42    0x9a  Data  Lc  mib.o [3]
sm_struct_mdom_descr    0x08091b76    0x9a  Data  Lc  mib.o [3]
sm_struct_mdom_sum      0x08091adc    0x9a  Data  Lc  mib.o [3]
sm_t2_expired           0x080c14df     0xc  Code  Gb  sm.o [3]
sm_usr_handle_fb_start_ind
                        0x080b0773    0xa0  Code  Gb  fbs_run.o [5]
sm_usr_search_tag       0x080b2f09    0x5e  Code  Gb  fbs_od.o [5]
sm_write_obj            0x080c2305   0x228  Code  Gb  sm.o [3]
sm_write_simple_var     0x080c213d   0x1c2  Code  Gb  sm.o [3]
smdl_call_fdev_funct    0x20007dcc    0x14  Data  Gb  smdls.o [3]
smdls_active_hdr        0x20002524    0x2c  Data  Gb  smdls.o [3]
smdls_calc_eep_size     0x080c07c5     0x4  Code  Gb  smdls.o [3]
smdls_cancel_dwnld      0x080c0ed1    0x44  Code  Lc  smdls.o [3]
smdls_copy_dom_header   0x080c0e6b    0x66  Code  Lc  smdls.o [3]
smdls_decode_dom_header
                        0x080c0d65    0xac  Code  Lc  smdls.o [3]
smdls_dom_hdr_api       0x2000257c    0x20  Data  Gb  smdls.o [3]
smdls_domain_descr      0x20002500    0x18  Data  Gb  smdls.o [3]
smdls_dwnld_hdr         0x20002550    0x2c  Data  Gb  smdls.o [3]
smdls_get_dom_state     0x080c09eb    0x12  Code  Gb  smdls.o [3]
smdls_handle_download_ind
                        0x080c0b27   0x1d0  Code  Gb  smdls.o [3]
smdls_init              0x080c0799    0x2c  Code  Gb  smdls.o [3]
smdls_is_dwnld_dom      0x080c09df     0xc  Code  Gb  smdls.o [3]
smdls_load_swdl_defaults
                        0x080c07c9    0x3a  Code  Gb  smdls.o [3]
smdls_mib_vcr_aborted   0x080c0cf7    0x22  Code  Gb  smdls.o [3]
smdls_nv_data           0x20002520     0x4  Data  Gb  smdls.o [3]
smdls_read_domain_descr
                        0x080c0f95   0x11a  Code  Lc  smdls.o [3]
smdls_read_domain_hdr   0x080c10b1   0x100  Code  Lc  smdls.o [3]
smdls_read_obj          0x080c09fd    0x5e  Code  Gb  smdls.o [3]
smdls_read_property     0x080c0f15    0x80  Code  Lc  smdls.o [3]
smdls_reset_dom_header  0x080c0e11    0x5a  Code  Lc  smdls.o [3]
smdls_segm_id           0x2000259c     0x1  Data  Gb  smdls.o [3]
smdls_store_dom_state   0x080c0d19    0x4c  Code  Lc  smdls.o [3]
smdls_write_dom_descr   0x080c0a6f    0xb8  Code  Lc  smdls.o [3]
smdls_write_obj         0x080c0a5b    0x14  Code  Gb  smdls.o [3]
smtim_add_u32_time      0x080c268b    0x12  Code  Lc  smtim.o [3]
smtim_adjust_system_time
                        0x080c25cf    0x1c  Code  Gb  smtim.o [3]
smtim_check_appl_time   0x080c25a9    0x18  Code  Gb  smtim.o [3]
smtim_enter_macrocycle  0x080c2775    0x56  Code  Gb  smtim.o [3]
smtim_get_appl_time     0x080c25c1     0xe  Code  Gb  smtim.o [3]
smtim_heapify           0x080c294d    0x5c  Code  Lc  smtim.o [3]
smtim_hsort             0x080c29a9    0x5c  Code  Lc  smtim.o [3]
smtim_insert_new_fb_start
                        0x080c27cb    0x8e  Code  Gb  smtim.o [3]
smtim_is_earlier_fb_start
                        0x080c2a05    0x2a  Code  Lc  smtim.o [3]
smtim_next_fb_start     0x080c2871    0xdc  Code  Lc  smtim.o [3]
smtim_start_fb_scheduling
                        0x080c26d5    0xa0  Code  Gb  smtim.o [3]
smtim_start_mc_timer    0x080c2ab3    0x12  Code  Lc  smtim.o [3]
smtim_start_wait_timer  0x080c2a9f    0x14  Code  Lc  smtim.o [3]
smtim_stop_fb_scheduling
                        0x080c2859    0x18  Code  Gb  smtim.o [3]
smtim_sub_times         0x080c26b1    0x24  Code  Lc  smtim.o [3]
smtim_sub_u32_time      0x080c269d    0x14  Code  Lc  smtim.o [3]
smtim_swap_fb_start     0x080c2a31    0x14  Code  Lc  smtim.o [3]
smtim_synchronize       0x080c25eb    0xa0  Code  Gb  smtim.o [3]
smtim_update_fb_start   0x080c2a45    0x5a  Code  Gb  smtim.o [3]
snd_buf                 0x20004aec    0x64  Data  Gb  appl_ptb.o [1]
sp_may_not_be_ready     0x20001138     0x1  Data  Lc  mn_fstate.o [1]
spec_ds_record_descr    0x080ab429    0x1a  Code  Gb  spec_ds.o [1]
sqrt                    0x080a4791          Code  Gb  sqrt.o [6]
sqrtl                   0x080a4791          Code  Gb  sqrt.o [6]
sr_frame                0x200124cc     0x4  Data  Lc  dll_lrx.o [3]
srand                   0x080ac451    0x20  Code  Gb  srand.o [4]
srv_tbl                 0x2000a648   0x690  Data  Gb  dll_bas.o [3]
st_dt_size              0x080afae0    0x16  Data  Gb  fbs_acc.o [5]
start_prepare_swdl      0x0809c497    0x12  Code  Gb  mn_fwdl.o [1]
stat                    0x200023d0     0xc  Data  Lc  selftest.o [1]
statemachine            0x0809bad1   0x1da  Code  Lc  hm.o [1]
static_data_lost        0x20001058     0x1  Data  Lc  appl_if.o [1]
storeByte               0x08098105    0x10  Code  Lc  eep_if.o [1]
storeULong              0x0809addd    0x10  Code  Lc  appl_dia.o [1]
store_token_cnt         0x2000a27e     0x2  Data  Gb  dll_bas.o [3]
strcmp                  0x080ac40d          Code  Gb  strcmp.o [8]
strlen                  0x0809b5cd          Code  Gb  strlen.o [8]
subscr_link             0x200085b4     0x4  Data  Gb  fbs_init.o [5]
suspicious_time         0x20008548     0x1  Data  Lc  dll_spc4.o [3]
svt_counter             0x20010fec     0x4  Data  Lc  faltim.o [3]
swdls_dwnld_prop        0x20002518     0x8  Data  Gb  smdls.o [3]
switcharray             0x2000109c     0x2  Data  Lc  mndoswff.o [1]
sys_alloc               0x08096833   0x34e  Code  Lc  dlmalloc.o [4]
systime_capture         0x0809f203    0x34  Code  Lc  appl_alert.o [1]
tag_len_16              0x20007d75     0x1  Data  Gb  fdc.o [3]
tag_reply               0x20011fb4    0x94  Data  Gb  fbs_od.o [5]
task_SwitchIdleOutHook  0x0809505b    0x1c  Code  Lc  osif_tsk.o [1]
task_SwitchInHook       0x08095039     0x2  Code  Lc  osif_tsk.o [1]
task_SwitchOutHook      0x0809503b    0x20  Code  Lc  osif_tsk.o [1]
task_data_subscription  0x080ad4f5    0x34  Code  Gb  fdc.o [3]
task_ext                0x08095820     0x8  Data  Gb  osif_tsk.o [1]
task_fblk_exec          0x080ad561    0x4a  Code  Gb  fdc.o [3]
task_fdc_background     0x080adb61    0x5e  Code  Gb  fdc_bgd.o [3]
task_fdc_background50   0x080adbc1    0x90  Code  Gb  fdc_bgd.o [3]
task_fdc_base_routine   0x080ad4a9    0x4a  Code  Gb  fdc.o [3]
task_hm_base_routine    0x08099433   0x182  Code  Gb  hm_task.o [1]
task_las_update         0x080ad5ad    0x38  Code  Gb  fdc.o [3]
task_send_mvc           0x080ad529    0x36  Code  Gb  fdc.o [3]
tb_Act1Pressure         0x080aba33     0x8  Code  Lc  mnptbexec.o [1]
tb_Act2Pressure         0x080aba45     0xa  Code  Lc  mnptbexec.o [1]
tb_BoolSp               0x080ab979    0x98  Code  Lc  mnptbexec.o [1]
tb_DOsw1                0x0809f981    0x3c  Code  Gb  mndoswff.o [1]
tb_DOsw2                0x0809f9bd    0x3a  Code  Gb  mndoswff.o [1]
tb_DiscreteInput        0x080abab5    0x12  Code  Lc  mnptbexec.o [1]
tb_FinalPosValue        0x080aba75     0x8  Code  Lc  mnptbexec.o [1]
tb_FinalValue           0x080aba6d     0x8  Code  Lc  mnptbexec.o [1]
tb_HasRun               0x200028e2     0x1  Data  Gb  appl_ptb.o [1]
tb_IPcurrent            0x080aba59     0xa  Code  Lc  mnptbexec.o [1]
tb_IntSp                0x080ab8eb    0x84  Code  Lc  mnptbexec.o [1]
tb_MAIchannels          0x080abac7    0x74  Code  Lc  mnptbexec.o [1]
tb_PilotPressure        0x080aba4f     0xa  Code  Lc  mnptbexec.o [1]
tb_PositionSp           0x080ab821    0xca  Code  Lc  mnptbexec.o [1]
tb_SupplyPressure       0x080aba29     0xa  Code  Lc  mnptbexec.o [1]
tb_Switch1              0x080aba91    0x12  Code  Lc  mnptbexec.o [1]
tb_Switch2              0x080abaa3    0x12  Code  Lc  mnptbexec.o [1]
tb_Temperature          0x080aba63     0xa  Code  Lc  mnptbexec.o [1]
tb_WorkingPos           0x080aba87     0xa  Code  Lc  mnptbexec.o [1]
tb_WorkingSP            0x080aba7d     0xa  Code  Lc  mnptbexec.o [1]
tcb_base                0x20001e4c   0x210  Data  Lc  osif_tsk.o [1]
td_frame                0x20008568     0x4  Data  Lc  dll_spc4.o [3]
testpad                 0x600093ec  0x2800  Data  Lc  eep_if.o [1]
testphase               0x200011de     0x1  Data  Lc  eep_if.o [1]
tim_list                0x20010ff8   0xfbc  Data  Lc  faltim.o [3]
time_dist_time          0x2000d09c     0x4  Data  Lc  dll_las.o [3]
timeout                 0x20004b64     0x4  Data  Lc  hm.o [1]
timer_GetTicks          0x08097df1     0xe  Code  Gb  stubs_app.o [1]
timer_GetTicksSince     0x08097dff    0x12  Code  Gb  stubs_app.o [1]
timer_handler           0x080999e7    0x9c  Code  Lc  osif_tim.o [1]
tl_frame                0x2000ae7c     0x8  Data  Gb  dll_bas.o [3]
tmalloc_large           0x08096b8d   0x37e  Code  Lc  dlmalloc.o [4]
tmalloc_small           0x08096f0b   0x1f8  Code  Lc  dlmalloc.o [4]
tmp_hi_adjust_time      0x080ac9bf    0x64  Code  Gb  tmp_hi.o [3]
tmp_hi_init             0x080ac9b5     0xa  Code  Gb  tmp_hi.o [3]
tmp_hi_initialized      0x20010fbc     0x1  Data  Lc  tmp_hi.o [3]
tmr_GetLSIFreq          0x0809c3d5    0x80  Code  Gb  stm_timer.o [1]
token_led_timeout       0x2000a280     0x2  Data  Gb  dll_bas.o [3]
token_rcvd              0x2000a27c     0x2  Data  Gb  dll_bas.o [3]
trap_systime            0x20004a7c     0xc  Data  Lc  appl_alert.o [1]
trapconf                0x0809597c    0x68  Data  Lc  mnassert.o [1]
traptab                 0x0809f684     0xd  Data  Lc  appl_alert.o [1]
trend_bitstr_obj_desc   0x080af6ac    0x34  Data  Lc  fbs_vfd.o [5]
trend_counter_cycle_counter
                        0x200010e8    0x20  Data  Lc  mn_trends.o [1]
trend_counter_position_err
                        0x20001108    0x20  Data  Lc  mn_trends.o [1]
trend_counter_travel_acc
                        0x200010c8    0x20  Data  Lc  mn_trends.o [1]
trend_disc_obj_desc     0x080af678    0x34  Data  Lc  fbs_vfd.o [5]
trend_float_obj_desc    0x080af644    0x34  Data  Lc  fbs_vfd.o [5]
trend_list              0x080a06d4    0x3c  Data  Gb  mn_trends.o [1]
tx_final                0x200124d8     0x1  Data  Lc  dll_ltx.o [3]
tx_length               0x20001a08     0x4  Data  Lc  hm.o [1]
tx_state                0x20001a04     0x4  Data  Lc  hm.o [1]
uAdvBufferFlag          0x200019bc     0x2  Data  Lc  mn_advanced.o [1]
unit_array              0x080a1ed4    0x44  Data  Lc  pressure_range.o [1]
update_bkcal_out        0x080a8e85   0x1a0  Code  Lc  ffbl_os.o [1]
update_link_settings    0x080bb011    0xf8  Code  Lc  dll_las.o [3]
update_nv_data          0x20007ad9     0x1  Data  Lc  fbs_nv.o [5]
usr_vfd_ref             0x20007e28     0x4  Data  Lc  sm.o [3]
usr_vfd_tag             0x20007df4    0x24  Data  Lc  sm.o [3]
util_GetS16             0x080a3911    0x14  Code  Gb  bufutils.o [1]
util_GetS32             0x080a392f    0x14  Code  Gb  bufutils.o [1]
util_GetU8Array         0x080a394d    0x1e  Code  Gb  bufutils.o [1]
util_PutU16             0x080a396b    0x12  Code  Gb  bufutils.o [1]
util_PutU32             0x080a397d    0x1a  Code  Gb  bufutils.o [1]
v_rid                   0x200124d0     0x1  Data  Gb  dll_lrx.o [3]
var_list                0x20008578     0x8  Data  Gb  fbs_init.o [5]
vcr_idx                 0x20010fea     0x2  Data  Lc  faltim.o [3]
verify_activation       0x0809c471     0x4  Code  Gb  appl_svi_swdl.o [1]
version_nr              0x08092f63    0x32  Data  Lc  appl_if.o [1]
view_dict_aifb          0x080816c8    0x10  Data  Gb  aifb.o [1]
view_dict_aofb          0x08082264    0x10  Data  Gb  aofb.o [1]
view_dict_arfb          0x08082fa0    0x10  Data  Gb  arfb.o [1]
view_dict_csfb          0x080838e4    0x10  Data  Gb  csfb.o [1]
view_dict_difb          0x08084294    0x10  Data  Gb  difb.o [1]
view_dict_dofb          0x08084cb4    0x10  Data  Gb  dofb.o [1]
view_dict_isfb          0x080862a4    0x10  Data  Gb  isfb.o [1]
view_dict_maifb         0x08086a7c    0x10  Data  Gb  maifb.o [1]
view_dict_osfb          0x0808746c    0x10  Data  Gb  osfb.o [1]
view_dict_pidfb         0x08088b60    0x10  Data  Gb  pidfb.o [1]
view_dict_ptb           0x0808bc0c    0x34  Data  Gb  ptb.o [1]
view_dict_resb          0x0808d384    0x10  Data  Gb  resb.o [1]
w4_tx_end               0x200124d2     0x1  Data  Lc  dll_lrx.o [3]
wd_timestamp            0x200011e4     0x4  Data  Lc  eep_if.o [1]
wdog_TickleInternalWD   0x0809a3fd     0xa  Code  Gb  stm_watchdogff.o [1]
wdog_WaitExternalWatchdog
                        0x0809a407    0x58  Code  Gb  stm_watchdogff.o [1]
wdog_WatchdogInit       0x0809a395    0x68  Code  Gb  stm_watchdogff.o [1]
wdogmon                 0x200011f0     0x8  Data  Lc  osif_tsk.o [1]
wdogmon_init            0x08095830     0x6  Data  Lc  osif_tsk.o [1]
whChecksum1__           0x08099285    0x16  Code  Gb  chsum.o [1]
working_scale           0x200028fc     0xc  Data  Lc  ffbl_ai.o [1]
writeCounter            0x20001094     0x4  Data  Lc  histogram.o [1]
write_buffer            0x60007fec  0x1400  Data  Lc  eep_if.o [1]
write_curve_local       0x080a0b09    0x4c  Code  Lc  mncharactff.o [1]
wsSignature             0x200087f6     0x2  Data  Lc  stubs_app.o [1]
xcp_dscr                0x20004ebc    0x18  Data  Gb  osif_mn.o [1]
xmt_msg                 0x0809b985    0xaa  Code  Lc  hm.o [1]


[1] = C:\tfsbuildR\SVIFF\Release2\FD-SW\cmdbuild\Rel\project_FFP
[2] = command line
[3] = base.a
[4] = dl7M_tln.a
[5] = ffbs.a
[6] = m7M_tl.a
[7] = os7m_tl__S.a
[8] = rt7M_tl.a

  204 780 bytes of readonly  code memory
   76 870 bytes of readonly  data memory
  190 129 bytes of readwrite data memory

Errors: none
Warnings: none
